
entry-static.exe:     file format elf64-littleriscv


Disassembly of section .text:

0000000000010158 <exit>:
   10158:	fe010113          	addi	sp,sp,-32
   1015c:	00a13423          	sd	a0,8(sp)
   10160:	00113c23          	sd	ra,24(sp)
   10164:	40c1c0ef          	jal	ra,2c570 <__funcs_on_exit>
   10168:	40c1c0ef          	jal	ra,2c574 <__libc_exit_fini>
   1016c:	6303e0ef          	jal	ra,4e79c <__stdio_exit>
   10170:	00813503          	ld	a0,8(sp)
   10174:	210380ef          	jal	ra,48384 <_Exit>

0000000000010178 <argv_main>:
   10178:	81010113          	addi	sp,sp,-2032
   1017c:	fffff337          	lui	t1,0xfffff
   10180:	7e813023          	sd	s0,2016(sp)
   10184:	7e113423          	sd	ra,2024(sp)
   10188:	7e030313          	addi	t1,t1,2016 # fffffffffffff7e0 <__BSS_END__+0xfffffffffff52a58>
   1018c:	00100793          	li	a5,1
   10190:	00610133          	add	sp,sp,t1
   10194:	00058413          	mv	s0,a1
   10198:	00f50863          	beq	a0,a5,101a8 <argv_main+0x30>
   1019c:	00052537          	lui	a0,0x52
   101a0:	23850513          	addi	a0,a0,568 # 52238 <CSWTCH.18+0x130>
   101a4:	459170ef          	jal	ra,27dfc <t_printf>
   101a8:	00043783          	ld	a5,0(s0)
   101ac:	00079863          	bnez	a5,101bc <argv_main+0x44>
   101b0:	00052537          	lui	a0,0x52
   101b4:	27850513          	addi	a0,a0,632 # 52278 <CSWTCH.18+0x170>
   101b8:	445170ef          	jal	ra,27dfc <t_printf>
   101bc:	00843783          	ld	a5,8(s0)
   101c0:	00078863          	beqz	a5,101d0 <argv_main+0x58>
   101c4:	00052537          	lui	a0,0x52
   101c8:	2c850513          	addi	a0,a0,712 # 522c8 <CSWTCH.18+0x1c0>
   101cc:	431170ef          	jal	ra,27dfc <t_printf>
   101d0:	00043783          	ld	a5,0(s0)
   101d4:	0007c783          	lbu	a5,0(a5)
   101d8:	00079863          	bnez	a5,101e8 <argv_main+0x70>
   101dc:	00052537          	lui	a0,0x52
   101e0:	31050513          	addi	a0,a0,784 # 52310 <CSWTCH.18+0x208>
   101e4:	419170ef          	jal	ra,27dfc <t_printf>
   101e8:	00043683          	ld	a3,0(s0)
   101ec:	000017b7          	lui	a5,0x1
   101f0:	002787b3          	add	a5,a5,sp
   101f4:	00052637          	lui	a2,0x52
   101f8:	fffff537          	lui	a0,0xfffff
   101fc:	00a78533          	add	a0,a5,a0
   10200:	04860613          	addi	a2,a2,72 # 52048 <__clzdi2+0x9c>
   10204:	000015b7          	lui	a1,0x1
   10208:	4ec2a0ef          	jal	ra,3a6f4 <snprintf>
   1020c:	0005051b          	sext.w	a0,a0
   10210:	000017b7          	lui	a5,0x1
   10214:	00f56863          	bltu	a0,a5,10224 <argv_main+0xac>
   10218:	00052537          	lui	a0,0x52
   1021c:	36050513          	addi	a0,a0,864 # 52360 <CSWTCH.18+0x258>
   10220:	3dd170ef          	jal	ra,27dfc <t_printf>
   10224:	00001337          	lui	t1,0x1
   10228:	82030313          	addi	t1,t1,-2016 # 820 <c1+0x80a>
   1022c:	bb01a503          	lw	a0,-1104(gp) # a7908 <t_status>
   10230:	00610133          	add	sp,sp,t1
   10234:	7e813083          	ld	ra,2024(sp)
   10238:	7e013403          	ld	s0,2016(sp)
   1023c:	0005051b          	sext.w	a0,a0
   10240:	7f010113          	addi	sp,sp,2032
   10244:	00008067          	ret

0000000000010248 <basename_main>:
   10248:	f5010113          	addi	sp,sp,-176
   1024c:	00000513          	li	a0,0
   10250:	0a813023          	sd	s0,160(sp)
   10254:	0a113423          	sd	ra,168(sp)
   10258:	08913c23          	sd	s1,152(sp)
   1025c:	09213823          	sd	s2,144(sp)
   10260:	09313423          	sd	s3,136(sp)
   10264:	00052437          	lui	s0,0x52
   10268:	3211f0ef          	jal	ra,2fd88 <basename>
   1026c:	3d840593          	addi	a1,s0,984 # 523d8 <CSWTCH.18+0x2d0>
   10270:	4502f0ef          	jal	ra,3f6c0 <strcmp>
   10274:	00050e63          	beqz	a0,10290 <basename_main+0x48>
   10278:	00000513          	li	a0,0
   1027c:	30d1f0ef          	jal	ra,2fd88 <basename>
   10280:	00050593          	mv	a1,a0
   10284:	00052537          	lui	a0,0x52
   10288:	3e050513          	addi	a0,a0,992 # 523e0 <CSWTCH.18+0x2d8>
   1028c:	371170ef          	jal	ra,27dfc <t_printf>
   10290:	0006f4b7          	lui	s1,0x6f
   10294:	d4848593          	addi	a1,s1,-696 # 6ed48 <t+0x1758>
   10298:	01810513          	addi	a0,sp,24
   1029c:	4482f0ef          	jal	ra,3f6e4 <strcpy>
   102a0:	2e91f0ef          	jal	ra,2fd88 <basename>
   102a4:	00050593          	mv	a1,a0
   102a8:	00a13423          	sd	a0,8(sp)
   102ac:	3d840513          	addi	a0,s0,984
   102b0:	4102f0ef          	jal	ra,3f6c0 <strcmp>
   102b4:	00813603          	ld	a2,8(sp)
   102b8:	00050c63          	beqz	a0,102d0 <basename_main+0x88>
   102bc:	00052537          	lui	a0,0x52
   102c0:	3d840693          	addi	a3,s0,984
   102c4:	d4848593          	addi	a1,s1,-696
   102c8:	42850513          	addi	a0,a0,1064 # 52428 <CSWTCH.18+0x320>
   102cc:	331170ef          	jal	ra,27dfc <t_printf>
   102d0:	000524b7          	lui	s1,0x52
   102d4:	47048593          	addi	a1,s1,1136 # 52470 <CSWTCH.18+0x368>
   102d8:	01810513          	addi	a0,sp,24
   102dc:	4082f0ef          	jal	ra,3f6e4 <strcpy>
   102e0:	2a91f0ef          	jal	ra,2fd88 <basename>
   102e4:	00052937          	lui	s2,0x52
   102e8:	00050593          	mv	a1,a0
   102ec:	00a13423          	sd	a0,8(sp)
   102f0:	48090513          	addi	a0,s2,1152 # 52480 <CSWTCH.18+0x378>
   102f4:	3cc2f0ef          	jal	ra,3f6c0 <strcmp>
   102f8:	00813603          	ld	a2,8(sp)
   102fc:	00050c63          	beqz	a0,10314 <basename_main+0xcc>
   10300:	00052537          	lui	a0,0x52
   10304:	48090693          	addi	a3,s2,1152
   10308:	47048593          	addi	a1,s1,1136
   1030c:	48850513          	addi	a0,a0,1160 # 52488 <CSWTCH.18+0x380>
   10310:	2ed170ef          	jal	ra,27dfc <t_printf>
   10314:	000529b7          	lui	s3,0x52
   10318:	4d098593          	addi	a1,s3,1232 # 524d0 <CSWTCH.18+0x3c8>
   1031c:	01810513          	addi	a0,sp,24
   10320:	3c42f0ef          	jal	ra,3f6e4 <strcpy>
   10324:	2651f0ef          	jal	ra,2fd88 <basename>
   10328:	000524b7          	lui	s1,0x52
   1032c:	00050593          	mv	a1,a0
   10330:	00a13423          	sd	a0,8(sp)
   10334:	4d848513          	addi	a0,s1,1240 # 524d8 <CSWTCH.18+0x3d0>
   10338:	3882f0ef          	jal	ra,3f6c0 <strcmp>
   1033c:	00813603          	ld	a2,8(sp)
   10340:	00050c63          	beqz	a0,10358 <basename_main+0x110>
   10344:	00052537          	lui	a0,0x52
   10348:	4d848693          	addi	a3,s1,1240
   1034c:	4d098593          	addi	a1,s3,1232
   10350:	4e050513          	addi	a0,a0,1248 # 524e0 <CSWTCH.18+0x3d8>
   10354:	2a9170ef          	jal	ra,27dfc <t_printf>
   10358:	000529b7          	lui	s3,0x52
   1035c:	52898593          	addi	a1,s3,1320 # 52528 <CSWTCH.18+0x420>
   10360:	01810513          	addi	a0,sp,24
   10364:	3802f0ef          	jal	ra,3f6e4 <strcpy>
   10368:	2211f0ef          	jal	ra,2fd88 <basename>
   1036c:	00050593          	mv	a1,a0
   10370:	00a13423          	sd	a0,8(sp)
   10374:	4d848513          	addi	a0,s1,1240
   10378:	3482f0ef          	jal	ra,3f6c0 <strcmp>
   1037c:	00813603          	ld	a2,8(sp)
   10380:	00050c63          	beqz	a0,10398 <basename_main+0x150>
   10384:	00052537          	lui	a0,0x52
   10388:	4d848693          	addi	a3,s1,1240
   1038c:	52898593          	addi	a1,s3,1320
   10390:	53050513          	addi	a0,a0,1328 # 52530 <CSWTCH.18+0x428>
   10394:	269170ef          	jal	ra,27dfc <t_printf>
   10398:	000524b7          	lui	s1,0x52
   1039c:	57848593          	addi	a1,s1,1400 # 52578 <CSWTCH.18+0x470>
   103a0:	01810513          	addi	a0,sp,24
   103a4:	3402f0ef          	jal	ra,3f6e4 <strcpy>
   103a8:	1e11f0ef          	jal	ra,2fd88 <basename>
   103ac:	00050593          	mv	a1,a0
   103b0:	00a13423          	sd	a0,8(sp)
   103b4:	57848513          	addi	a0,s1,1400
   103b8:	3082f0ef          	jal	ra,3f6c0 <strcmp>
   103bc:	00813603          	ld	a2,8(sp)
   103c0:	00050c63          	beqz	a0,103d8 <basename_main+0x190>
   103c4:	00052537          	lui	a0,0x52
   103c8:	57848693          	addi	a3,s1,1400
   103cc:	57848593          	addi	a1,s1,1400
   103d0:	58050513          	addi	a0,a0,1408 # 52580 <CSWTCH.18+0x478>
   103d4:	229170ef          	jal	ra,27dfc <t_printf>
   103d8:	000529b7          	lui	s3,0x52
   103dc:	5c898593          	addi	a1,s3,1480 # 525c8 <CSWTCH.18+0x4c0>
   103e0:	01810513          	addi	a0,sp,24
   103e4:	3002f0ef          	jal	ra,3f6e4 <strcpy>
   103e8:	1a11f0ef          	jal	ra,2fd88 <basename>
   103ec:	00050593          	mv	a1,a0
   103f0:	00a13423          	sd	a0,8(sp)
   103f4:	57848513          	addi	a0,s1,1400
   103f8:	2c82f0ef          	jal	ra,3f6c0 <strcmp>
   103fc:	00813603          	ld	a2,8(sp)
   10400:	00050c63          	beqz	a0,10418 <basename_main+0x1d0>
   10404:	00052537          	lui	a0,0x52
   10408:	57848693          	addi	a3,s1,1400
   1040c:	5c898593          	addi	a1,s3,1480
   10410:	5d050513          	addi	a0,a0,1488 # 525d0 <CSWTCH.18+0x4c8>
   10414:	1e9170ef          	jal	ra,27dfc <t_printf>
   10418:	000524b7          	lui	s1,0x52
   1041c:	61848593          	addi	a1,s1,1560 # 52618 <CSWTCH.18+0x510>
   10420:	01810513          	addi	a0,sp,24
   10424:	2c02f0ef          	jal	ra,3f6e4 <strcpy>
   10428:	1611f0ef          	jal	ra,2fd88 <basename>
   1042c:	00050593          	mv	a1,a0
   10430:	00a13423          	sd	a0,8(sp)
   10434:	48090513          	addi	a0,s2,1152
   10438:	2882f0ef          	jal	ra,3f6c0 <strcmp>
   1043c:	00813603          	ld	a2,8(sp)
   10440:	00050c63          	beqz	a0,10458 <basename_main+0x210>
   10444:	00052537          	lui	a0,0x52
   10448:	48090693          	addi	a3,s2,1152
   1044c:	61848593          	addi	a1,s1,1560
   10450:	62850513          	addi	a0,a0,1576 # 52628 <CSWTCH.18+0x520>
   10454:	1a9170ef          	jal	ra,27dfc <t_printf>
   10458:	3d840593          	addi	a1,s0,984
   1045c:	01810513          	addi	a0,sp,24
   10460:	2842f0ef          	jal	ra,3f6e4 <strcpy>
   10464:	1251f0ef          	jal	ra,2fd88 <basename>
   10468:	00050593          	mv	a1,a0
   1046c:	00a13423          	sd	a0,8(sp)
   10470:	3d840513          	addi	a0,s0,984
   10474:	24c2f0ef          	jal	ra,3f6c0 <strcmp>
   10478:	00813603          	ld	a2,8(sp)
   1047c:	00050c63          	beqz	a0,10494 <basename_main+0x24c>
   10480:	00052537          	lui	a0,0x52
   10484:	3d840693          	addi	a3,s0,984
   10488:	3d840593          	addi	a1,s0,984
   1048c:	67050513          	addi	a0,a0,1648 # 52670 <CSWTCH.18+0x568>
   10490:	16d170ef          	jal	ra,27dfc <t_printf>
   10494:	00053437          	lui	s0,0x53
   10498:	0d840593          	addi	a1,s0,216 # 530d8 <CSWTCH.18+0xfd0>
   1049c:	01810513          	addi	a0,sp,24
   104a0:	2442f0ef          	jal	ra,3f6e4 <strcpy>
   104a4:	0e51f0ef          	jal	ra,2fd88 <basename>
   104a8:	00050593          	mv	a1,a0
   104ac:	00a13423          	sd	a0,8(sp)
   104b0:	0d840513          	addi	a0,s0,216
   104b4:	20c2f0ef          	jal	ra,3f6c0 <strcmp>
   104b8:	00813603          	ld	a2,8(sp)
   104bc:	00050c63          	beqz	a0,104d4 <basename_main+0x28c>
   104c0:	00052537          	lui	a0,0x52
   104c4:	0d840693          	addi	a3,s0,216
   104c8:	0d840593          	addi	a1,s0,216
   104cc:	6b850513          	addi	a0,a0,1720 # 526b8 <CSWTCH.18+0x5b0>
   104d0:	12d170ef          	jal	ra,27dfc <t_printf>
   104d4:	bb01a503          	lw	a0,-1104(gp) # a7908 <t_status>
   104d8:	0a813083          	ld	ra,168(sp)
   104dc:	0a013403          	ld	s0,160(sp)
   104e0:	09813483          	ld	s1,152(sp)
   104e4:	09013903          	ld	s2,144(sp)
   104e8:	08813983          	ld	s3,136(sp)
   104ec:	0005051b          	sext.w	a0,a0
   104f0:	0b010113          	addi	sp,sp,176
   104f4:	00008067          	ret

00000000000104f8 <clocale_mbfuncs_main>:
   104f8:	81010113          	addi	sp,sp,-2032
   104fc:	000525b7          	lui	a1,0x52
   10500:	7e113423          	sd	ra,2024(sp)
   10504:	7e813023          	sd	s0,2016(sp)
   10508:	7c913c23          	sd	s1,2008(sp)
   1050c:	7d213823          	sd	s2,2000(sp)
   10510:	7d313423          	sd	s3,1992(sp)
   10514:	7d413023          	sd	s4,1984(sp)
   10518:	7b513c23          	sd	s5,1976(sp)
   1051c:	7b613823          	sd	s6,1968(sp)
   10520:	7b713423          	sd	s7,1960(sp)
   10524:	7b813023          	sd	s8,1952(sp)
   10528:	79913c23          	sd	s9,1944(sp)
   1052c:	70058593          	addi	a1,a1,1792 # 52700 <CSWTCH.18+0x5f8>
   10530:	b6010113          	addi	sp,sp,-1184
   10534:	00000513          	li	a0,0
   10538:	6f11d0ef          	jal	ra,2e428 <setlocale>
   1053c:	3201b0ef          	jal	ra,2b85c <__ctype_get_mb_cur_max>
   10540:	00100793          	li	a5,1
   10544:	00f50c63          	beq	a0,a5,1055c <clocale_mbfuncs_main+0x64>
   10548:	3141b0ef          	jal	ra,2b85c <__ctype_get_mb_cur_max>
   1054c:	0005059b          	sext.w	a1,a0
   10550:	00052537          	lui	a0,0x52
   10554:	70850513          	addi	a0,a0,1800 # 52708 <CSWTCH.18+0x600>
   10558:	0a5170ef          	jal	ra,27dfc <t_printf>
   1055c:	000017b7          	lui	a5,0x1
   10560:	fffff537          	lui	a0,0xfffff
   10564:	c3078713          	addi	a4,a5,-976 # c30 <c1+0xc1a>
   10568:	7f050413          	addi	s0,a0,2032 # fffffffffffff7f0 <__BSS_END__+0xfffffffffff52a68>
   1056c:	00270733          	add	a4,a4,sp
   10570:	00870433          	add	s0,a4,s0
   10574:	c3078713          	addi	a4,a5,-976
   10578:	3e050a93          	addi	s5,a0,992
   1057c:	00270733          	add	a4,a4,sp
   10580:	3dc50513          	addi	a0,a0,988
   10584:	00040993          	mv	s3,s0
   10588:	00000493          	li	s1,0
   1058c:	01570ab3          	add	s5,a4,s5
   10590:	00a70933          	add	s2,a4,a0
   10594:	00052bb7          	lui	s7,0x52
   10598:	00053c37          	lui	s8,0x53
   1059c:	00052cb7          	lui	s9,0x52
   105a0:	00001737          	lui	a4,0x1
   105a4:	82870793          	addi	a5,a4,-2008 # 828 <c1+0x812>
   105a8:	002787b3          	add	a5,a5,sp
   105ac:	00978023          	sb	s1,0(a5)
   105b0:	00078593          	mv	a1,a5
   105b4:	000a8693          	mv	a3,s5
   105b8:	00100613          	li	a2,1
   105bc:	00090513          	mv	a0,s2
   105c0:	00013823          	sd	zero,16(sp)
   105c4:	4d51f0ef          	jal	ra,30298 <mbrtowc>
   105c8:	009037b3          	snez	a5,s1
   105cc:	00f50863          	beq	a0,a5,105dc <clocale_mbfuncs_main+0xe4>
   105d0:	00048593          	mv	a1,s1
   105d4:	750b8513          	addi	a0,s7,1872 # 52750 <CSWTCH.18+0x648>
   105d8:	025170ef          	jal	ra,27dfc <t_printf>
   105dc:	00048513          	mv	a0,s1
   105e0:	4711f0ef          	jal	ra,30250 <btowc>
   105e4:	0005051b          	sext.w	a0,a0
   105e8:	00a9a023          	sw	a0,0(s3)
   105ec:	fff00793          	li	a5,-1
   105f0:	46f51063          	bne	a0,a5,10a50 <clocale_mbfuncs_main+0x558>
   105f4:	00048593          	mv	a1,s1
   105f8:	7a8c8513          	addi	a0,s9,1960 # 527a8 <CSWTCH.18+0x6a0>
   105fc:	001170ef          	jal	ra,27dfc <t_printf>
   10600:	0014849b          	addiw	s1,s1,1
   10604:	10000793          	li	a5,256
   10608:	00498993          	addi	s3,s3,4
   1060c:	f8f49ae3          	bne	s1,a5,105a0 <clocale_mbfuncs_main+0xa8>
   10610:	00040913          	mv	s2,s0
   10614:	00000493          	li	s1,0
   10618:	fff00a13          	li	s4,-1
   1061c:	00053ab7          	lui	s5,0x53
   10620:	10000993          	li	s3,256
   10624:	00092503          	lw	a0,0(s2)
   10628:	01450e63          	beq	a0,s4,10644 <clocale_mbfuncs_main+0x14c>
   1062c:	410200ef          	jal	ra,30a3c <wctob>
   10630:	00950a63          	beq	a0,s1,10644 <clocale_mbfuncs_main+0x14c>
   10634:	00092583          	lw	a1,0(s2)
   10638:	00048613          	mv	a2,s1
   1063c:	858a8513          	addi	a0,s5,-1960 # 52858 <CSWTCH.18+0x750>
   10640:	7bc170ef          	jal	ra,27dfc <t_printf>
   10644:	0014849b          	addiw	s1,s1,1
   10648:	00490913          	addi	s2,s2,4
   1064c:	fd349ce3          	bne	s1,s3,10624 <clocale_mbfuncs_main+0x12c>
   10650:	00001737          	lui	a4,0x1
   10654:	c3070693          	addi	a3,a4,-976 # c30 <c1+0xc1a>
   10658:	fffff7b7          	lui	a5,0xfffff
   1065c:	002686b3          	add	a3,a3,sp
   10660:	00f68ab3          	add	s5,a3,a5
   10664:	c3070693          	addi	a3,a4,-976
   10668:	002686b3          	add	a3,a3,sp
   1066c:	00f68bb3          	add	s7,a3,a5
   10670:	c3070693          	addi	a3,a4,-976
   10674:	3e078b13          	addi	s6,a5,992 # fffffffffffff3e0 <__BSS_END__+0xfffffffffff52658>
   10678:	002686b3          	add	a3,a3,sp
   1067c:	3f078793          	addi	a5,a5,1008
   10680:	00000913          	li	s2,0
   10684:	00000493          	li	s1,0
   10688:	7f4a8a93          	addi	s5,s5,2036
   1068c:	01668b33          	add	s6,a3,s6
   10690:	00f689b3          	add	s3,a3,a5
   10694:	00053c37          	lui	s8,0x53
   10698:	00053cb7          	lui	s9,0x53
   1069c:	00048593          	mv	a1,s1
   106a0:	000a8513          	mv	a0,s5
   106a4:	3d12f0ef          	jal	ra,40274 <wcschr>
   106a8:	06051663          	bnez	a0,10714 <clocale_mbfuncs_main+0x21c>
   106ac:	00048513          	mv	a0,s1
   106b0:	38c200ef          	jal	ra,30a3c <wctob>
   106b4:	fff00793          	li	a5,-1
   106b8:	00050613          	mv	a2,a0
   106bc:	00090a13          	mv	s4,s2
   106c0:	00f50e63          	beq	a0,a5,106dc <clocale_mbfuncs_main+0x1e4>
   106c4:	03100793          	li	a5,49
   106c8:	00190a1b          	addiw	s4,s2,1
   106cc:	0127c863          	blt	a5,s2,106dc <clocale_mbfuncs_main+0x1e4>
   106d0:	00048593          	mv	a1,s1
   106d4:	8b8c8513          	addi	a0,s9,-1864 # 528b8 <CSWTCH.18+0x7b0>
   106d8:	724170ef          	jal	ra,27dfc <t_printf>
   106dc:	000b0613          	mv	a2,s6
   106e0:	00048593          	mv	a1,s1
   106e4:	00098513          	mv	a0,s3
   106e8:	3e0bb023          	sd	zero,992(s7)
   106ec:	098200ef          	jal	ra,30784 <wcrtomb>
   106f0:	fff00793          	li	a5,-1
   106f4:	000a0913          	mv	s2,s4
   106f8:	00f50e63          	beq	a0,a5,10714 <clocale_mbfuncs_main+0x21c>
   106fc:	03100793          	li	a5,49
   10700:	001a091b          	addiw	s2,s4,1
   10704:	0147c863          	blt	a5,s4,10714 <clocale_mbfuncs_main+0x21c>
   10708:	00048593          	mv	a1,s1
   1070c:	918c0513          	addi	a0,s8,-1768 # 52918 <CSWTCH.18+0x810>
   10710:	6ec170ef          	jal	ra,27dfc <t_printf>
   10714:	0014849b          	addiw	s1,s1,1
   10718:	001107b7          	lui	a5,0x110
   1071c:	f8f490e3          	bne	s1,a5,1069c <clocale_mbfuncs_main+0x1a4>
   10720:	03200793          	li	a5,50
   10724:	0127da63          	bge	a5,s2,10738 <clocale_mbfuncs_main+0x240>
   10728:	00053537          	lui	a0,0x53
   1072c:	00090593          	mv	a1,s2
   10730:	96850513          	addi	a0,a0,-1688 # 52968 <CSWTCH.18+0x860>
   10734:	6c8170ef          	jal	ra,27dfc <t_printf>
   10738:	00001737          	lui	a4,0x1
   1073c:	82070793          	addi	a5,a4,-2016 # 820 <c1+0x80a>
   10740:	002787b3          	add	a5,a5,sp
   10744:	0007a023          	sw	zero,0(a5) # 110000 <__BSS_END__+0x63278>
   10748:	c3070793          	addi	a5,a4,-976
   1074c:	fffff537          	lui	a0,0xfffff
   10750:	002787b3          	add	a5,a5,sp
   10754:	00a787b3          	add	a5,a5,a0
   10758:	82870693          	addi	a3,a4,-2008
   1075c:	7f478793          	addi	a5,a5,2036
   10760:	002686b3          	add	a3,a3,sp
   10764:	00f6b023          	sd	a5,0(a3)
   10768:	c3070793          	addi	a5,a4,-976
   1076c:	3e050693          	addi	a3,a0,992 # fffffffffffff3e0 <__BSS_END__+0xfffffffffff52658>
   10770:	002787b3          	add	a5,a5,sp
   10774:	00d786b3          	add	a3,a5,a3
   10778:	c3070793          	addi	a5,a4,-976
   1077c:	002787b3          	add	a5,a5,sp
   10780:	82870593          	addi	a1,a4,-2008
   10784:	3f050513          	addi	a0,a0,1008
   10788:	002585b3          	add	a1,a1,sp
   1078c:	00a78533          	add	a0,a5,a0
   10790:	40000613          	li	a2,1024
   10794:	00013823          	sd	zero,16(sp)
   10798:	11c200ef          	jal	ra,308b4 <wcsrtombs>
   1079c:	0ff00793          	li	a5,255
   107a0:	00050593          	mv	a1,a0
   107a4:	00f50863          	beq	a0,a5,107b4 <clocale_mbfuncs_main+0x2bc>
   107a8:	00053537          	lui	a0,0x53
   107ac:	9c050513          	addi	a0,a0,-1600 # 529c0 <CSWTCH.18+0x8b8>
   107b0:	64c170ef          	jal	ra,27dfc <t_printf>
   107b4:	00001737          	lui	a4,0x1
   107b8:	fffff5b7          	lui	a1,0xfffff
   107bc:	c3070693          	addi	a3,a4,-976 # c30 <c1+0xc1a>
   107c0:	3f058793          	addi	a5,a1,1008 # fffffffffffff3f0 <__BSS_END__+0xfffffffffff52668>
   107c4:	002686b3          	add	a3,a3,sp
   107c8:	00f687b3          	add	a5,a3,a5
   107cc:	00f13c23          	sd	a5,24(sp)
   107d0:	c3070793          	addi	a5,a4,-976
   107d4:	3e058693          	addi	a3,a1,992
   107d8:	002787b3          	add	a5,a5,sp
   107dc:	00d786b3          	add	a3,a5,a3
   107e0:	c3070793          	addi	a5,a4,-976
   107e4:	002787b3          	add	a5,a5,sp
   107e8:	82870513          	addi	a0,a4,-2008
   107ec:	3e858593          	addi	a1,a1,1000
   107f0:	00b785b3          	add	a1,a5,a1
   107f4:	10000613          	li	a2,256
   107f8:	00250533          	add	a0,a0,sp
   107fc:	3f51f0ef          	jal	ra,303f0 <mbsrtowcs>
   10800:	0ff00793          	li	a5,255
   10804:	00050593          	mv	a1,a0
   10808:	00f50863          	beq	a0,a5,10818 <clocale_mbfuncs_main+0x320>
   1080c:	00053537          	lui	a0,0x53
   10810:	a1050513          	addi	a0,a0,-1520 # 52a10 <CSWTCH.18+0x908>
   10814:	5e8170ef          	jal	ra,27dfc <t_printf>
   10818:	00001737          	lui	a4,0x1
   1081c:	c3070793          	addi	a5,a4,-976 # c30 <c1+0xc1a>
   10820:	fffff537          	lui	a0,0xfffff
   10824:	002787b3          	add	a5,a5,sp
   10828:	00a78533          	add	a0,a5,a0
   1082c:	82870593          	addi	a1,a4,-2008
   10830:	40000613          	li	a2,1024
   10834:	002585b3          	add	a1,a1,sp
   10838:	7f450513          	addi	a0,a0,2036 # fffffffffffff7f4 <__BSS_END__+0xfffffffffff52a6c>
   1083c:	1cc2e0ef          	jal	ra,3ea08 <memcmp>
   10840:	00050863          	beqz	a0,10850 <clocale_mbfuncs_main+0x358>
   10844:	00053537          	lui	a0,0x53
   10848:	a6050513          	addi	a0,a0,-1440 # 52a60 <CSWTCH.18+0x958>
   1084c:	5b0170ef          	jal	ra,27dfc <t_printf>
   10850:	08000493          	li	s1,128
   10854:	00053937          	lui	s2,0x53
   10858:	000539b7          	lui	s3,0x53
   1085c:	00053a37          	lui	s4,0x53
   10860:	00053ab7          	lui	s5,0x53
   10864:	00053b37          	lui	s6,0x53
   10868:	00053bb7          	lui	s7,0x53
   1086c:	00053c37          	lui	s8,0x53
   10870:	00053cb7          	lui	s9,0x53
   10874:	20042503          	lw	a0,512(s0)
   10878:	0001b0ef          	jal	ra,2b878 <iswalnum>
   1087c:	00050a63          	beqz	a0,10890 <clocale_mbfuncs_main+0x398>
   10880:	20042583          	lw	a1,512(s0)
   10884:	00048613          	mv	a2,s1
   10888:	ab090513          	addi	a0,s2,-1360 # 52ab0 <CSWTCH.18+0x9a8>
   1088c:	570170ef          	jal	ra,27dfc <t_printf>
   10890:	20042503          	lw	a0,512(s0)
   10894:	0181b0ef          	jal	ra,2b8ac <iswalpha>
   10898:	00050a63          	beqz	a0,108ac <clocale_mbfuncs_main+0x3b4>
   1089c:	20042583          	lw	a1,512(s0)
   108a0:	00048613          	mv	a2,s1
   108a4:	b0098513          	addi	a0,s3,-1280 # 52b00 <CSWTCH.18+0x9f8>
   108a8:	554170ef          	jal	ra,27dfc <t_printf>
   108ac:	20042503          	lw	a0,512(s0)
   108b0:	0641b0ef          	jal	ra,2b914 <iswblank>
   108b4:	00050a63          	beqz	a0,108c8 <clocale_mbfuncs_main+0x3d0>
   108b8:	20042583          	lw	a1,512(s0)
   108bc:	00048613          	mv	a2,s1
   108c0:	b50a0513          	addi	a0,s4,-1200 # 52b50 <CSWTCH.18+0xa48>
   108c4:	538170ef          	jal	ra,27dfc <t_printf>
   108c8:	20042503          	lw	a0,512(s0)
   108cc:	0501b0ef          	jal	ra,2b91c <iswcntrl>
   108d0:	00050a63          	beqz	a0,108e4 <clocale_mbfuncs_main+0x3ec>
   108d4:	20042583          	lw	a1,512(s0)
   108d8:	00048613          	mv	a2,s1
   108dc:	ba0a8513          	addi	a0,s5,-1120 # 52ba0 <CSWTCH.18+0xa98>
   108e0:	51c170ef          	jal	ra,27dfc <t_printf>
   108e4:	20042583          	lw	a1,512(s0)
   108e8:	00900793          	li	a5,9
   108ec:	fd05871b          	addiw	a4,a1,-48
   108f0:	00e7e863          	bltu	a5,a4,10900 <clocale_mbfuncs_main+0x408>
   108f4:	00048613          	mv	a2,s1
   108f8:	bf0b0513          	addi	a0,s6,-1040 # 52bf0 <CSWTCH.18+0xae8>
   108fc:	500170ef          	jal	ra,27dfc <t_printf>
   10900:	20042503          	lw	a0,512(s0)
   10904:	0641b0ef          	jal	ra,2b968 <iswgraph>
   10908:	00050a63          	beqz	a0,1091c <clocale_mbfuncs_main+0x424>
   1090c:	20042583          	lw	a1,512(s0)
   10910:	00048613          	mv	a2,s1
   10914:	c40b8513          	addi	a0,s7,-960 # 52c40 <CSWTCH.18+0xb38>
   10918:	4e4170ef          	jal	ra,27dfc <t_printf>
   1091c:	20042503          	lw	a0,512(s0)
   10920:	0881b0ef          	jal	ra,2b9a8 <iswlower>
   10924:	00050a63          	beqz	a0,10938 <clocale_mbfuncs_main+0x440>
   10928:	20042583          	lw	a1,512(s0)
   1092c:	00048613          	mv	a2,s1
   10930:	c90c0513          	addi	a0,s8,-880 # 52c90 <CSWTCH.18+0xb88>
   10934:	4c8170ef          	jal	ra,27dfc <t_printf>
   10938:	20042503          	lw	a0,512(s0)
   1093c:	0a01b0ef          	jal	ra,2b9dc <iswprint>
   10940:	00050a63          	beqz	a0,10954 <clocale_mbfuncs_main+0x45c>
   10944:	20042583          	lw	a1,512(s0)
   10948:	00048613          	mv	a2,s1
   1094c:	ce0c8513          	addi	a0,s9,-800 # 52ce0 <CSWTCH.18+0xbd8>
   10950:	4ac170ef          	jal	ra,27dfc <t_printf>
   10954:	20042503          	lw	a0,512(s0)
   10958:	1141b0ef          	jal	ra,2ba6c <iswpunct>
   1095c:	00050c63          	beqz	a0,10974 <clocale_mbfuncs_main+0x47c>
   10960:	20042583          	lw	a1,512(s0)
   10964:	00053537          	lui	a0,0x53
   10968:	00048613          	mv	a2,s1
   1096c:	d3050513          	addi	a0,a0,-720 # 52d30 <CSWTCH.18+0xc28>
   10970:	48c170ef          	jal	ra,27dfc <t_printf>
   10974:	20042503          	lw	a0,512(s0)
   10978:	14c1b0ef          	jal	ra,2bac4 <iswspace>
   1097c:	00050c63          	beqz	a0,10994 <clocale_mbfuncs_main+0x49c>
   10980:	20042583          	lw	a1,512(s0)
   10984:	00053537          	lui	a0,0x53
   10988:	00048613          	mv	a2,s1
   1098c:	d8050513          	addi	a0,a0,-640 # 52d80 <CSWTCH.18+0xc78>
   10990:	46c170ef          	jal	ra,27dfc <t_printf>
   10994:	20042503          	lw	a0,512(s0)
   10998:	1641b0ef          	jal	ra,2bafc <iswupper>
   1099c:	00050c63          	beqz	a0,109b4 <clocale_mbfuncs_main+0x4bc>
   109a0:	20042583          	lw	a1,512(s0)
   109a4:	00053537          	lui	a0,0x53
   109a8:	00048613          	mv	a2,s1
   109ac:	dd050513          	addi	a0,a0,-560 # 52dd0 <CSWTCH.18+0xcc8>
   109b0:	44c170ef          	jal	ra,27dfc <t_printf>
   109b4:	20042503          	lw	a0,512(s0)
   109b8:	1781b0ef          	jal	ra,2bb30 <iswxdigit>
   109bc:	00050c63          	beqz	a0,109d4 <clocale_mbfuncs_main+0x4dc>
   109c0:	20042583          	lw	a1,512(s0)
   109c4:	00053537          	lui	a0,0x53
   109c8:	00048613          	mv	a2,s1
   109cc:	e2050513          	addi	a0,a0,-480 # 52e20 <CSWTCH.18+0xd18>
   109d0:	42c170ef          	jal	ra,27dfc <t_printf>
   109d4:	0014849b          	addiw	s1,s1,1
   109d8:	10000793          	li	a5,256
   109dc:	00440413          	addi	s0,s0,4
   109e0:	e8f49ae3          	bne	s1,a5,10874 <clocale_mbfuncs_main+0x37c>
   109e4:	bb01a503          	lw	a0,-1104(gp) # a7908 <t_status>
   109e8:	4a010113          	addi	sp,sp,1184
   109ec:	7e813083          	ld	ra,2024(sp)
   109f0:	7e013403          	ld	s0,2016(sp)
   109f4:	7d813483          	ld	s1,2008(sp)
   109f8:	7d013903          	ld	s2,2000(sp)
   109fc:	7c813983          	ld	s3,1992(sp)
   10a00:	7c013a03          	ld	s4,1984(sp)
   10a04:	7b813a83          	ld	s5,1976(sp)
   10a08:	7b013b03          	ld	s6,1968(sp)
   10a0c:	7a813b83          	ld	s7,1960(sp)
   10a10:	7a013c03          	ld	s8,1952(sp)
   10a14:	79813c83          	ld	s9,1944(sp)
   10a18:	0005051b          	sext.w	a0,a0
   10a1c:	7f010113          	addi	sp,sp,2032
   10a20:	00008067          	ret
   10a24:	0009a783          	lw	a5,0(s3)
   10a28:	000b2683          	lw	a3,0(s6)
   10a2c:	00f69a63          	bne	a3,a5,10a40 <clocale_mbfuncs_main+0x548>
   10a30:	00048613          	mv	a2,s1
   10a34:	000a0593          	mv	a1,s4
   10a38:	800c0513          	addi	a0,s8,-2048
   10a3c:	3c0170ef          	jal	ra,27dfc <t_printf>
   10a40:	001a0a1b          	addiw	s4,s4,1
   10a44:	004b0b13          	addi	s6,s6,4
   10a48:	fc9a1ee3          	bne	s4,s1,10a24 <clocale_mbfuncs_main+0x52c>
   10a4c:	bb5ff06f          	j	10600 <clocale_mbfuncs_main+0x108>
   10a50:	00040b13          	mv	s6,s0
   10a54:	00000a13          	li	s4,0
   10a58:	ff1ff06f          	j	10a48 <clocale_mbfuncs_main+0x550>

0000000000010a5c <clock_gettime_main>:
   10a5c:	fe010113          	addi	sp,sp,-32
   10a60:	00010593          	mv	a1,sp
   10a64:	00000513          	li	a0,0
   10a68:	00813823          	sd	s0,16(sp)
   10a6c:	00113c23          	sd	ra,24(sp)
   10a70:	310340ef          	jal	ra,44d80 <__clock_gettime>
   10a74:	00050413          	mv	s0,a0
   10a78:	2191b0ef          	jal	ra,2c490 <__errno_location>
   10a7c:	00041663          	bnez	s0,10a88 <clock_gettime_main+0x2c>
   10a80:	00052783          	lw	a5,0(a0)
   10a84:	00078e63          	beqz	a5,10aa0 <clock_gettime_main+0x44>
   10a88:	00052503          	lw	a0,0(a0)
   10a8c:	25d1b0ef          	jal	ra,2c4e8 <strerror>
   10a90:	00050593          	mv	a1,a0
   10a94:	00053537          	lui	a0,0x53
   10a98:	e7050513          	addi	a0,a0,-400 # 52e70 <CSWTCH.18+0xd68>
   10a9c:	360170ef          	jal	ra,27dfc <t_printf>
   10aa0:	bb01a503          	lw	a0,-1104(gp) # a7908 <t_status>
   10aa4:	01813083          	ld	ra,24(sp)
   10aa8:	01013403          	ld	s0,16(sp)
   10aac:	0005051b          	sext.w	a0,a0
   10ab0:	02010113          	addi	sp,sp,32
   10ab4:	00008067          	ret

0000000000010ab8 <crypt_main>:
   10ab8:	fb010113          	addi	sp,sp,-80
   10abc:	03213823          	sd	s2,48(sp)
   10ac0:	01613823          	sd	s6,16(sp)
   10ac4:	00053937          	lui	s2,0x53
   10ac8:	00053b37          	lui	s6,0x53
   10acc:	ed890593          	addi	a1,s2,-296 # 52ed8 <CSWTCH.18+0xdd0>
   10ad0:	ee8b0513          	addi	a0,s6,-280 # 52ee8 <CSWTCH.18+0xde0>
   10ad4:	04813023          	sd	s0,64(sp)
   10ad8:	02913c23          	sd	s1,56(sp)
   10adc:	04113423          	sd	ra,72(sp)
   10ae0:	03313423          	sd	s3,40(sp)
   10ae4:	03413023          	sd	s4,32(sp)
   10ae8:	01513c23          	sd	s5,24(sp)
   10aec:	01713423          	sd	s7,8(sp)
   10af0:	0b1190ef          	jal	ra,2a3a0 <crypt>
   10af4:	000534b7          	lui	s1,0x53
   10af8:	1c0500e3          	beqz	a0,114b8 <crypt_main+0xa00>
   10afc:	baa1bc23          	sd	a0,-1096(gp) # a7910 <p>
   10b00:	bb81b503          	ld	a0,-1096(gp) # a7910 <p>
   10b04:	000539b7          	lui	s3,0x53
   10b08:	f0898593          	addi	a1,s3,-248 # 52f08 <CSWTCH.18+0xe00>
   10b0c:	3b52e0ef          	jal	ra,3f6c0 <strcmp>
   10b10:	02050263          	beqz	a0,10b34 <crypt_main+0x7c>
   10b14:	bb81b683          	ld	a3,-1096(gp) # a7910 <p>
   10b18:	000535b7          	lui	a1,0x53
   10b1c:	00053537          	lui	a0,0x53
   10b20:	f0898713          	addi	a4,s3,-248
   10b24:	ed890613          	addi	a2,s2,-296
   10b28:	f3058593          	addi	a1,a1,-208 # 52f30 <CSWTCH.18+0xe28>
   10b2c:	f6050513          	addi	a0,a0,-160 # 52f60 <CSWTCH.18+0xe58>
   10b30:	2cc170ef          	jal	ra,27dfc <t_printf>
   10b34:	000539b7          	lui	s3,0x53
   10b38:	0006f937          	lui	s2,0x6f
   10b3c:	fa898593          	addi	a1,s3,-88 # 52fa8 <CSWTCH.18+0xea0>
   10b40:	d4890513          	addi	a0,s2,-696 # 6ed48 <t+0x1758>
   10b44:	05d190ef          	jal	ra,2a3a0 <crypt>
   10b48:	16050ee3          	beqz	a0,114c4 <crypt_main+0xa0c>
   10b4c:	baa1bc23          	sd	a0,-1096(gp) # a7910 <p>
   10b50:	bb81b503          	ld	a0,-1096(gp) # a7910 <p>
   10b54:	00053a37          	lui	s4,0x53
   10b58:	fb0a0593          	addi	a1,s4,-80 # 52fb0 <CSWTCH.18+0xea8>
   10b5c:	3652e0ef          	jal	ra,3f6c0 <strcmp>
   10b60:	02050263          	beqz	a0,10b84 <crypt_main+0xcc>
   10b64:	bb81b683          	ld	a3,-1096(gp) # a7910 <p>
   10b68:	000535b7          	lui	a1,0x53
   10b6c:	00053537          	lui	a0,0x53
   10b70:	fb0a0713          	addi	a4,s4,-80
   10b74:	fa898613          	addi	a2,s3,-88
   10b78:	fd058593          	addi	a1,a1,-48 # 52fd0 <CSWTCH.18+0xec8>
   10b7c:	fd850513          	addi	a0,a0,-40 # 52fd8 <CSWTCH.18+0xed0>
   10b80:	27c170ef          	jal	ra,27dfc <t_printf>
   10b84:	000539b7          	lui	s3,0x53
   10b88:	02098593          	addi	a1,s3,32 # 53020 <CSWTCH.18+0xf18>
   10b8c:	d4890513          	addi	a0,s2,-696
   10b90:	011190ef          	jal	ra,2a3a0 <crypt>
   10b94:	12050ee3          	beqz	a0,114d0 <crypt_main+0xa18>
   10b98:	baa1bc23          	sd	a0,-1096(gp) # a7910 <p>
   10b9c:	bb81b503          	ld	a0,-1096(gp) # a7910 <p>
   10ba0:	00053a37          	lui	s4,0x53
   10ba4:	030a0593          	addi	a1,s4,48 # 53030 <CSWTCH.18+0xf28>
   10ba8:	3192e0ef          	jal	ra,3f6c0 <strcmp>
   10bac:	02050263          	beqz	a0,10bd0 <crypt_main+0x118>
   10bb0:	bb81b683          	ld	a3,-1096(gp) # a7910 <p>
   10bb4:	000535b7          	lui	a1,0x53
   10bb8:	00053537          	lui	a0,0x53
   10bbc:	030a0713          	addi	a4,s4,48
   10bc0:	02098613          	addi	a2,s3,32
   10bc4:	fd058593          	addi	a1,a1,-48 # 52fd0 <CSWTCH.18+0xec8>
   10bc8:	05050513          	addi	a0,a0,80 # 53050 <CSWTCH.18+0xf48>
   10bcc:	230170ef          	jal	ra,27dfc <t_printf>
   10bd0:	00053a37          	lui	s4,0x53
   10bd4:	000539b7          	lui	s3,0x53
   10bd8:	098a0593          	addi	a1,s4,152 # 53098 <CSWTCH.18+0xf90>
   10bdc:	0a898513          	addi	a0,s3,168 # 530a8 <CSWTCH.18+0xfa0>
   10be0:	7c0190ef          	jal	ra,2a3a0 <crypt>
   10be4:	0e050ce3          	beqz	a0,114dc <crypt_main+0xa24>
   10be8:	baa1bc23          	sd	a0,-1096(gp) # a7910 <p>
   10bec:	bb81b503          	ld	a0,-1096(gp) # a7910 <p>
   10bf0:	00053ab7          	lui	s5,0x53
   10bf4:	0b8a8593          	addi	a1,s5,184 # 530b8 <CSWTCH.18+0xfb0>
   10bf8:	2c92e0ef          	jal	ra,3f6c0 <strcmp>
   10bfc:	02050263          	beqz	a0,10c20 <crypt_main+0x168>
   10c00:	bb81b683          	ld	a3,-1096(gp) # a7910 <p>
   10c04:	000535b7          	lui	a1,0x53
   10c08:	00053537          	lui	a0,0x53
   10c0c:	0b8a8713          	addi	a4,s5,184
   10c10:	098a0613          	addi	a2,s4,152
   10c14:	0e058593          	addi	a1,a1,224 # 530e0 <CSWTCH.18+0xfd8>
   10c18:	0f850513          	addi	a0,a0,248 # 530f8 <CSWTCH.18+0xff0>
   10c1c:	1e0170ef          	jal	ra,27dfc <t_printf>
   10c20:	00053a37          	lui	s4,0x53
   10c24:	00053537          	lui	a0,0x53
   10c28:	140a0593          	addi	a1,s4,320 # 53140 <CSWTCH.18+0x1038>
   10c2c:	16050513          	addi	a0,a0,352 # 53160 <CSWTCH.18+0x1058>
   10c30:	770190ef          	jal	ra,2a3a0 <crypt>
   10c34:	0a050ae3          	beqz	a0,114e8 <crypt_main+0xa30>
   10c38:	baa1bc23          	sd	a0,-1096(gp) # a7910 <p>
   10c3c:	bb81b503          	ld	a0,-1096(gp) # a7910 <p>
   10c40:	00053ab7          	lui	s5,0x53
   10c44:	178a8593          	addi	a1,s5,376 # 53178 <CSWTCH.18+0x1070>
   10c48:	2792e0ef          	jal	ra,3f6c0 <strcmp>
   10c4c:	02050263          	beqz	a0,10c70 <crypt_main+0x1b8>
   10c50:	bb81b683          	ld	a3,-1096(gp) # a7910 <p>
   10c54:	000535b7          	lui	a1,0x53
   10c58:	00053537          	lui	a0,0x53
   10c5c:	178a8713          	addi	a4,s5,376
   10c60:	140a0613          	addi	a2,s4,320
   10c64:	1a058593          	addi	a1,a1,416 # 531a0 <CSWTCH.18+0x1098>
   10c68:	1b850513          	addi	a0,a0,440 # 531b8 <CSWTCH.18+0x10b0>
   10c6c:	190170ef          	jal	ra,27dfc <t_printf>
   10c70:	00053a37          	lui	s4,0x53
   10c74:	200a0593          	addi	a1,s4,512 # 53200 <CSWTCH.18+0x10f8>
   10c78:	d4890513          	addi	a0,s2,-696
   10c7c:	724190ef          	jal	ra,2a3a0 <crypt>
   10c80:	06050ae3          	beqz	a0,114f4 <crypt_main+0xa3c>
   10c84:	baa1bc23          	sd	a0,-1096(gp) # a7910 <p>
   10c88:	bb81b503          	ld	a0,-1096(gp) # a7910 <p>
   10c8c:	f0048593          	addi	a1,s1,-256 # 52f00 <CSWTCH.18+0xdf8>
   10c90:	2312e0ef          	jal	ra,3f6c0 <strcmp>
   10c94:	02050263          	beqz	a0,10cb8 <crypt_main+0x200>
   10c98:	bb81b683          	ld	a3,-1096(gp) # a7910 <p>
   10c9c:	000535b7          	lui	a1,0x53
   10ca0:	00053537          	lui	a0,0x53
   10ca4:	f0048713          	addi	a4,s1,-256
   10ca8:	200a0613          	addi	a2,s4,512
   10cac:	fd058593          	addi	a1,a1,-48 # 52fd0 <CSWTCH.18+0xec8>
   10cb0:	22050513          	addi	a0,a0,544 # 53220 <CSWTCH.18+0x1118>
   10cb4:	148170ef          	jal	ra,27dfc <t_printf>
   10cb8:	00053a37          	lui	s4,0x53
   10cbc:	268a0593          	addi	a1,s4,616 # 53268 <CSWTCH.18+0x1160>
   10cc0:	d4890513          	addi	a0,s2,-696
   10cc4:	6dc190ef          	jal	ra,2a3a0 <crypt>
   10cc8:	02050ce3          	beqz	a0,11500 <crypt_main+0xa48>
   10ccc:	baa1bc23          	sd	a0,-1096(gp) # a7910 <p>
   10cd0:	bb81b503          	ld	a0,-1096(gp) # a7910 <p>
   10cd4:	f0048593          	addi	a1,s1,-256
   10cd8:	1e92e0ef          	jal	ra,3f6c0 <strcmp>
   10cdc:	02050263          	beqz	a0,10d00 <crypt_main+0x248>
   10ce0:	bb81b683          	ld	a3,-1096(gp) # a7910 <p>
   10ce4:	000535b7          	lui	a1,0x53
   10ce8:	00053537          	lui	a0,0x53
   10cec:	f0048713          	addi	a4,s1,-256
   10cf0:	268a0613          	addi	a2,s4,616
   10cf4:	fd058593          	addi	a1,a1,-48 # 52fd0 <CSWTCH.18+0xec8>
   10cf8:	28850513          	addi	a0,a0,648 # 53288 <CSWTCH.18+0x1180>
   10cfc:	100170ef          	jal	ra,27dfc <t_printf>
   10d00:	00053a37          	lui	s4,0x53
   10d04:	2d0a0593          	addi	a1,s4,720 # 532d0 <CSWTCH.18+0x11c8>
   10d08:	d4890513          	addi	a0,s2,-696
   10d0c:	694190ef          	jal	ra,2a3a0 <crypt>
   10d10:	7e050e63          	beqz	a0,1150c <crypt_main+0xa54>
   10d14:	baa1bc23          	sd	a0,-1096(gp) # a7910 <p>
   10d18:	bb81b503          	ld	a0,-1096(gp) # a7910 <p>
   10d1c:	00053ab7          	lui	s5,0x53
   10d20:	2f0a8593          	addi	a1,s5,752 # 532f0 <CSWTCH.18+0x11e8>
   10d24:	19d2e0ef          	jal	ra,3f6c0 <strcmp>
   10d28:	02050263          	beqz	a0,10d4c <crypt_main+0x294>
   10d2c:	bb81b683          	ld	a3,-1096(gp) # a7910 <p>
   10d30:	000535b7          	lui	a1,0x53
   10d34:	00053537          	lui	a0,0x53
   10d38:	2f0a8713          	addi	a4,s5,752
   10d3c:	2d0a0613          	addi	a2,s4,720
   10d40:	fd058593          	addi	a1,a1,-48 # 52fd0 <CSWTCH.18+0xec8>
   10d44:	33050513          	addi	a0,a0,816 # 53330 <CSWTCH.18+0x1228>
   10d48:	0b4170ef          	jal	ra,27dfc <t_printf>
   10d4c:	00053a37          	lui	s4,0x53
   10d50:	00053ab7          	lui	s5,0x53
   10d54:	378a0593          	addi	a1,s4,888 # 53378 <CSWTCH.18+0x1270>
   10d58:	398a8513          	addi	a0,s5,920 # 53398 <CSWTCH.18+0x1290>
   10d5c:	644190ef          	jal	ra,2a3a0 <crypt>
   10d60:	7a050c63          	beqz	a0,11518 <crypt_main+0xa60>
   10d64:	baa1bc23          	sd	a0,-1096(gp) # a7910 <p>
   10d68:	bb81b503          	ld	a0,-1096(gp) # a7910 <p>
   10d6c:	00053bb7          	lui	s7,0x53
   10d70:	3a0b8593          	addi	a1,s7,928 # 533a0 <CSWTCH.18+0x1298>
   10d74:	14d2e0ef          	jal	ra,3f6c0 <strcmp>
   10d78:	02050263          	beqz	a0,10d9c <crypt_main+0x2e4>
   10d7c:	bb81b683          	ld	a3,-1096(gp) # a7910 <p>
   10d80:	000535b7          	lui	a1,0x53
   10d84:	00053537          	lui	a0,0x53
   10d88:	3a0b8713          	addi	a4,s7,928
   10d8c:	378a0613          	addi	a2,s4,888
   10d90:	3e058593          	addi	a1,a1,992 # 533e0 <CSWTCH.18+0x12d8>
   10d94:	40050513          	addi	a0,a0,1024 # 53400 <CSWTCH.18+0x12f8>
   10d98:	064170ef          	jal	ra,27dfc <t_printf>
   10d9c:	378a0593          	addi	a1,s4,888
   10da0:	0a898513          	addi	a0,s3,168
   10da4:	5fc190ef          	jal	ra,2a3a0 <crypt>
   10da8:	76050e63          	beqz	a0,11524 <crypt_main+0xa6c>
   10dac:	baa1bc23          	sd	a0,-1096(gp) # a7910 <p>
   10db0:	bb81b503          	ld	a0,-1096(gp) # a7910 <p>
   10db4:	00053bb7          	lui	s7,0x53
   10db8:	448b8593          	addi	a1,s7,1096 # 53448 <CSWTCH.18+0x1340>
   10dbc:	1052e0ef          	jal	ra,3f6c0 <strcmp>
   10dc0:	02050263          	beqz	a0,10de4 <crypt_main+0x32c>
   10dc4:	bb81b683          	ld	a3,-1096(gp) # a7910 <p>
   10dc8:	000535b7          	lui	a1,0x53
   10dcc:	00053537          	lui	a0,0x53
   10dd0:	448b8713          	addi	a4,s7,1096
   10dd4:	378a0613          	addi	a2,s4,888
   10dd8:	0e058593          	addi	a1,a1,224 # 530e0 <CSWTCH.18+0xfd8>
   10ddc:	48850513          	addi	a0,a0,1160 # 53488 <CSWTCH.18+0x1380>
   10de0:	01c170ef          	jal	ra,27dfc <t_printf>
   10de4:	00053a37          	lui	s4,0x53
   10de8:	4d0a0593          	addi	a1,s4,1232 # 534d0 <CSWTCH.18+0x13c8>
   10dec:	398a8513          	addi	a0,s5,920
   10df0:	5b0190ef          	jal	ra,2a3a0 <crypt>
   10df4:	72050e63          	beqz	a0,11530 <crypt_main+0xa78>
   10df8:	baa1bc23          	sd	a0,-1096(gp) # a7910 <p>
   10dfc:	bb81b503          	ld	a0,-1096(gp) # a7910 <p>
   10e00:	00053bb7          	lui	s7,0x53
   10e04:	4f0b8593          	addi	a1,s7,1264 # 534f0 <CSWTCH.18+0x13e8>
   10e08:	0b92e0ef          	jal	ra,3f6c0 <strcmp>
   10e0c:	02050263          	beqz	a0,10e30 <crypt_main+0x378>
   10e10:	bb81b683          	ld	a3,-1096(gp) # a7910 <p>
   10e14:	000535b7          	lui	a1,0x53
   10e18:	00053537          	lui	a0,0x53
   10e1c:	4f0b8713          	addi	a4,s7,1264
   10e20:	4d0a0613          	addi	a2,s4,1232
   10e24:	3e058593          	addi	a1,a1,992 # 533e0 <CSWTCH.18+0x12d8>
   10e28:	53050513          	addi	a0,a0,1328 # 53530 <CSWTCH.18+0x1428>
   10e2c:	7d1160ef          	jal	ra,27dfc <t_printf>
   10e30:	4d0a0593          	addi	a1,s4,1232
   10e34:	0a898513          	addi	a0,s3,168
   10e38:	568190ef          	jal	ra,2a3a0 <crypt>
   10e3c:	70050063          	beqz	a0,1153c <crypt_main+0xa84>
   10e40:	baa1bc23          	sd	a0,-1096(gp) # a7910 <p>
   10e44:	bb81b503          	ld	a0,-1096(gp) # a7910 <p>
   10e48:	00053bb7          	lui	s7,0x53
   10e4c:	578b8593          	addi	a1,s7,1400 # 53578 <CSWTCH.18+0x1470>
   10e50:	0712e0ef          	jal	ra,3f6c0 <strcmp>
   10e54:	02050263          	beqz	a0,10e78 <crypt_main+0x3c0>
   10e58:	bb81b683          	ld	a3,-1096(gp) # a7910 <p>
   10e5c:	000535b7          	lui	a1,0x53
   10e60:	00053537          	lui	a0,0x53
   10e64:	578b8713          	addi	a4,s7,1400
   10e68:	4d0a0613          	addi	a2,s4,1232
   10e6c:	0e058593          	addi	a1,a1,224 # 530e0 <CSWTCH.18+0xfd8>
   10e70:	5b850513          	addi	a0,a0,1464 # 535b8 <CSWTCH.18+0x14b0>
   10e74:	789160ef          	jal	ra,27dfc <t_printf>
   10e78:	00053a37          	lui	s4,0x53
   10e7c:	600a0593          	addi	a1,s4,1536 # 53600 <CSWTCH.18+0x14f8>
   10e80:	398a8513          	addi	a0,s5,920
   10e84:	51c190ef          	jal	ra,2a3a0 <crypt>
   10e88:	6c050063          	beqz	a0,11548 <crypt_main+0xa90>
   10e8c:	baa1bc23          	sd	a0,-1096(gp) # a7910 <p>
   10e90:	bb81b503          	ld	a0,-1096(gp) # a7910 <p>
   10e94:	00053ab7          	lui	s5,0x53
   10e98:	620a8593          	addi	a1,s5,1568 # 53620 <CSWTCH.18+0x1518>
   10e9c:	0252e0ef          	jal	ra,3f6c0 <strcmp>
   10ea0:	02050263          	beqz	a0,10ec4 <crypt_main+0x40c>
   10ea4:	bb81b683          	ld	a3,-1096(gp) # a7910 <p>
   10ea8:	000535b7          	lui	a1,0x53
   10eac:	00053537          	lui	a0,0x53
   10eb0:	620a8713          	addi	a4,s5,1568
   10eb4:	600a0613          	addi	a2,s4,1536
   10eb8:	3e058593          	addi	a1,a1,992 # 533e0 <CSWTCH.18+0x12d8>
   10ebc:	66050513          	addi	a0,a0,1632 # 53660 <CSWTCH.18+0x1558>
   10ec0:	73d160ef          	jal	ra,27dfc <t_printf>
   10ec4:	600a0593          	addi	a1,s4,1536
   10ec8:	0a898513          	addi	a0,s3,168
   10ecc:	4d4190ef          	jal	ra,2a3a0 <crypt>
   10ed0:	68050263          	beqz	a0,11554 <crypt_main+0xa9c>
   10ed4:	baa1bc23          	sd	a0,-1096(gp) # a7910 <p>
   10ed8:	bb81b503          	ld	a0,-1096(gp) # a7910 <p>
   10edc:	00053ab7          	lui	s5,0x53
   10ee0:	6a8a8593          	addi	a1,s5,1704 # 536a8 <CSWTCH.18+0x15a0>
   10ee4:	7dc2e0ef          	jal	ra,3f6c0 <strcmp>
   10ee8:	02050263          	beqz	a0,10f0c <crypt_main+0x454>
   10eec:	bb81b683          	ld	a3,-1096(gp) # a7910 <p>
   10ef0:	000535b7          	lui	a1,0x53
   10ef4:	00053537          	lui	a0,0x53
   10ef8:	6a8a8713          	addi	a4,s5,1704
   10efc:	600a0613          	addi	a2,s4,1536
   10f00:	0e058593          	addi	a1,a1,224 # 530e0 <CSWTCH.18+0xfd8>
   10f04:	6e850513          	addi	a0,a0,1768 # 536e8 <CSWTCH.18+0x15e0>
   10f08:	6f5160ef          	jal	ra,27dfc <t_printf>
   10f0c:	00053a37          	lui	s4,0x53
   10f10:	730a0593          	addi	a1,s4,1840 # 53730 <CSWTCH.18+0x1628>
   10f14:	d4890513          	addi	a0,s2,-696
   10f18:	488190ef          	jal	ra,2a3a0 <crypt>
   10f1c:	64050263          	beqz	a0,11560 <crypt_main+0xaa8>
   10f20:	baa1bc23          	sd	a0,-1096(gp) # a7910 <p>
   10f24:	bb81b503          	ld	a0,-1096(gp) # a7910 <p>
   10f28:	000534b7          	lui	s1,0x53
   10f2c:	73848593          	addi	a1,s1,1848 # 53738 <CSWTCH.18+0x1630>
   10f30:	7902e0ef          	jal	ra,3f6c0 <strcmp>
   10f34:	02050263          	beqz	a0,10f58 <crypt_main+0x4a0>
   10f38:	bb81b683          	ld	a3,-1096(gp) # a7910 <p>
   10f3c:	000535b7          	lui	a1,0x53
   10f40:	00053537          	lui	a0,0x53
   10f44:	73848713          	addi	a4,s1,1848
   10f48:	730a0613          	addi	a2,s4,1840
   10f4c:	fd058593          	addi	a1,a1,-48 # 52fd0 <CSWTCH.18+0xec8>
   10f50:	76850513          	addi	a0,a0,1896 # 53768 <CSWTCH.18+0x1660>
   10f54:	6a9160ef          	jal	ra,27dfc <t_printf>
   10f58:	000534b7          	lui	s1,0x53
   10f5c:	7b048593          	addi	a1,s1,1968 # 537b0 <CSWTCH.18+0x16a8>
   10f60:	ee8b0513          	addi	a0,s6,-280
   10f64:	43c190ef          	jal	ra,2a3a0 <crypt>
   10f68:	60050263          	beqz	a0,1156c <crypt_main+0xab4>
   10f6c:	baa1bc23          	sd	a0,-1096(gp) # a7910 <p>
   10f70:	bb81b503          	ld	a0,-1096(gp) # a7910 <p>
   10f74:	00053937          	lui	s2,0x53
   10f78:	7d090593          	addi	a1,s2,2000 # 537d0 <CSWTCH.18+0x16c8>
   10f7c:	7442e0ef          	jal	ra,3f6c0 <strcmp>
   10f80:	02050263          	beqz	a0,10fa4 <crypt_main+0x4ec>
   10f84:	bb81b683          	ld	a3,-1096(gp) # a7910 <p>
   10f88:	000535b7          	lui	a1,0x53
   10f8c:	00054537          	lui	a0,0x54
   10f90:	7d090713          	addi	a4,s2,2000
   10f94:	7b048613          	addi	a2,s1,1968
   10f98:	f3058593          	addi	a1,a1,-208 # 52f30 <CSWTCH.18+0xe28>
   10f9c:	82050513          	addi	a0,a0,-2016 # 53820 <CSWTCH.18+0x1718>
   10fa0:	65d160ef          	jal	ra,27dfc <t_printf>
   10fa4:	000544b7          	lui	s1,0x54
   10fa8:	86848593          	addi	a1,s1,-1944 # 53868 <CSWTCH.18+0x1760>
   10fac:	0a898513          	addi	a0,s3,168
   10fb0:	3f0190ef          	jal	ra,2a3a0 <crypt>
   10fb4:	5c050463          	beqz	a0,1157c <crypt_main+0xac4>
   10fb8:	baa1bc23          	sd	a0,-1096(gp) # a7910 <p>
   10fbc:	bb81b503          	ld	a0,-1096(gp) # a7910 <p>
   10fc0:	00054937          	lui	s2,0x54
   10fc4:	87890593          	addi	a1,s2,-1928 # 53878 <CSWTCH.18+0x1770>
   10fc8:	6f82e0ef          	jal	ra,3f6c0 <strcmp>
   10fcc:	02050263          	beqz	a0,10ff0 <crypt_main+0x538>
   10fd0:	bb81b683          	ld	a3,-1096(gp) # a7910 <p>
   10fd4:	000535b7          	lui	a1,0x53
   10fd8:	00054537          	lui	a0,0x54
   10fdc:	87890713          	addi	a4,s2,-1928
   10fe0:	86848613          	addi	a2,s1,-1944
   10fe4:	0e058593          	addi	a1,a1,224 # 530e0 <CSWTCH.18+0xfd8>
   10fe8:	8b050513          	addi	a0,a0,-1872 # 538b0 <CSWTCH.18+0x17a8>
   10fec:	611160ef          	jal	ra,27dfc <t_printf>
   10ff0:	00054937          	lui	s2,0x54
   10ff4:	000664b7          	lui	s1,0x66
   10ff8:	8f890593          	addi	a1,s2,-1800 # 538f8 <CSWTCH.18+0x17f0>
   10ffc:	77048513          	addi	a0,s1,1904 # 66770 <fp_tests+0x4858>
   11000:	3a0190ef          	jal	ra,2a3a0 <crypt>
   11004:	58050463          	beqz	a0,1158c <crypt_main+0xad4>
   11008:	baa1bc23          	sd	a0,-1096(gp) # a7910 <p>
   1100c:	bb81b503          	ld	a0,-1096(gp) # a7910 <p>
   11010:	000549b7          	lui	s3,0x54
   11014:	90898593          	addi	a1,s3,-1784 # 53908 <CSWTCH.18+0x1800>
   11018:	6a82e0ef          	jal	ra,3f6c0 <strcmp>
   1101c:	02050263          	beqz	a0,11040 <crypt_main+0x588>
   11020:	bb81b683          	ld	a3,-1096(gp) # a7910 <p>
   11024:	000545b7          	lui	a1,0x54
   11028:	00054537          	lui	a0,0x54
   1102c:	90898713          	addi	a4,s3,-1784
   11030:	8f890613          	addi	a2,s2,-1800
   11034:	94858593          	addi	a1,a1,-1720 # 53948 <CSWTCH.18+0x1840>
   11038:	95050513          	addi	a0,a0,-1712 # 53950 <CSWTCH.18+0x1848>
   1103c:	5c1160ef          	jal	ra,27dfc <t_printf>
   11040:	00054937          	lui	s2,0x54
   11044:	99890593          	addi	a1,s2,-1640 # 53998 <CSWTCH.18+0x1890>
   11048:	77048513          	addi	a0,s1,1904
   1104c:	354190ef          	jal	ra,2a3a0 <crypt>
   11050:	54050663          	beqz	a0,1159c <crypt_main+0xae4>
   11054:	baa1bc23          	sd	a0,-1096(gp) # a7910 <p>
   11058:	bb81b503          	ld	a0,-1096(gp) # a7910 <p>
   1105c:	000549b7          	lui	s3,0x54
   11060:	9b098593          	addi	a1,s3,-1616 # 539b0 <CSWTCH.18+0x18a8>
   11064:	65c2e0ef          	jal	ra,3f6c0 <strcmp>
   11068:	02050263          	beqz	a0,1108c <crypt_main+0x5d4>
   1106c:	bb81b683          	ld	a3,-1096(gp) # a7910 <p>
   11070:	000545b7          	lui	a1,0x54
   11074:	00054537          	lui	a0,0x54
   11078:	9b098713          	addi	a4,s3,-1616
   1107c:	99890613          	addi	a2,s2,-1640
   11080:	94858593          	addi	a1,a1,-1720 # 53948 <CSWTCH.18+0x1840>
   11084:	9f050513          	addi	a0,a0,-1552 # 539f0 <CSWTCH.18+0x18e8>
   11088:	575160ef          	jal	ra,27dfc <t_printf>
   1108c:	00054937          	lui	s2,0x54
   11090:	00054ab7          	lui	s5,0x54
   11094:	a3890593          	addi	a1,s2,-1480 # 53a38 <CSWTCH.18+0x1930>
   11098:	a48a8513          	addi	a0,s5,-1464 # 53a48 <CSWTCH.18+0x1940>
   1109c:	304190ef          	jal	ra,2a3a0 <crypt>
   110a0:	50050663          	beqz	a0,115ac <crypt_main+0xaf4>
   110a4:	baa1bc23          	sd	a0,-1096(gp) # a7910 <p>
   110a8:	bb81b503          	ld	a0,-1096(gp) # a7910 <p>
   110ac:	000549b7          	lui	s3,0x54
   110b0:	a5898593          	addi	a1,s3,-1448 # 53a58 <CSWTCH.18+0x1950>
   110b4:	60c2e0ef          	jal	ra,3f6c0 <strcmp>
   110b8:	02050263          	beqz	a0,110dc <crypt_main+0x624>
   110bc:	bb81b683          	ld	a3,-1096(gp) # a7910 <p>
   110c0:	000545b7          	lui	a1,0x54
   110c4:	00054537          	lui	a0,0x54
   110c8:	a5898713          	addi	a4,s3,-1448
   110cc:	a3890613          	addi	a2,s2,-1480
   110d0:	a9858593          	addi	a1,a1,-1384 # 53a98 <CSWTCH.18+0x1990>
   110d4:	aa850513          	addi	a0,a0,-1368 # 53aa8 <CSWTCH.18+0x19a0>
   110d8:	525160ef          	jal	ra,27dfc <t_printf>
   110dc:	00054937          	lui	s2,0x54
   110e0:	00054a37          	lui	s4,0x54
   110e4:	af090593          	addi	a1,s2,-1296 # 53af0 <CSWTCH.18+0x19e8>
   110e8:	b18a0513          	addi	a0,s4,-1256 # 53b18 <CSWTCH.18+0x1a10>
   110ec:	2b4190ef          	jal	ra,2a3a0 <crypt>
   110f0:	4c050663          	beqz	a0,115bc <crypt_main+0xb04>
   110f4:	baa1bc23          	sd	a0,-1096(gp) # a7910 <p>
   110f8:	bb81b503          	ld	a0,-1096(gp) # a7910 <p>
   110fc:	000549b7          	lui	s3,0x54
   11100:	b3098593          	addi	a1,s3,-1232 # 53b30 <CSWTCH.18+0x1a28>
   11104:	5bc2e0ef          	jal	ra,3f6c0 <strcmp>
   11108:	02050263          	beqz	a0,1112c <crypt_main+0x674>
   1110c:	bb81b683          	ld	a3,-1096(gp) # a7910 <p>
   11110:	000545b7          	lui	a1,0x54
   11114:	00054537          	lui	a0,0x54
   11118:	b3098713          	addi	a4,s3,-1232
   1111c:	af090613          	addi	a2,s2,-1296
   11120:	b8058593          	addi	a1,a1,-1152 # 53b80 <CSWTCH.18+0x1a78>
   11124:	b9850513          	addi	a0,a0,-1128 # 53b98 <CSWTCH.18+0x1a90>
   11128:	4d5160ef          	jal	ra,27dfc <t_printf>
   1112c:	00054937          	lui	s2,0x54
   11130:	000549b7          	lui	s3,0x54
   11134:	be090593          	addi	a1,s2,-1056 # 53be0 <CSWTCH.18+0x1ad8>
   11138:	c0898513          	addi	a0,s3,-1016 # 53c08 <CSWTCH.18+0x1b00>
   1113c:	264190ef          	jal	ra,2a3a0 <crypt>
   11140:	48050663          	beqz	a0,115cc <crypt_main+0xb14>
   11144:	baa1bc23          	sd	a0,-1096(gp) # a7910 <p>
   11148:	bb81b503          	ld	a0,-1096(gp) # a7910 <p>
   1114c:	00054b37          	lui	s6,0x54
   11150:	c60b0593          	addi	a1,s6,-928 # 53c60 <CSWTCH.18+0x1b58>
   11154:	56c2e0ef          	jal	ra,3f6c0 <strcmp>
   11158:	02050263          	beqz	a0,1117c <crypt_main+0x6c4>
   1115c:	bb81b683          	ld	a3,-1096(gp) # a7910 <p>
   11160:	000545b7          	lui	a1,0x54
   11164:	00054537          	lui	a0,0x54
   11168:	c60b0713          	addi	a4,s6,-928
   1116c:	be090613          	addi	a2,s2,-1056
   11170:	cb058593          	addi	a1,a1,-848 # 53cb0 <CSWTCH.18+0x1ba8>
   11174:	d0850513          	addi	a0,a0,-760 # 53d08 <CSWTCH.18+0x1c00>
   11178:	485160ef          	jal	ra,27dfc <t_printf>
   1117c:	00054b37          	lui	s6,0x54
   11180:	00054937          	lui	s2,0x54
   11184:	d50b0593          	addi	a1,s6,-688 # 53d50 <CSWTCH.18+0x1c48>
   11188:	d7090513          	addi	a0,s2,-656 # 53d70 <CSWTCH.18+0x1c68>
   1118c:	214190ef          	jal	ra,2a3a0 <crypt>
   11190:	44050663          	beqz	a0,115dc <crypt_main+0xb24>
   11194:	baa1bc23          	sd	a0,-1096(gp) # a7910 <p>
   11198:	bb81b503          	ld	a0,-1096(gp) # a7910 <p>
   1119c:	00054bb7          	lui	s7,0x54
   111a0:	d98b8593          	addi	a1,s7,-616 # 53d98 <CSWTCH.18+0x1c90>
   111a4:	51c2e0ef          	jal	ra,3f6c0 <strcmp>
   111a8:	02050263          	beqz	a0,111cc <crypt_main+0x714>
   111ac:	bb81b683          	ld	a3,-1096(gp) # a7910 <p>
   111b0:	000545b7          	lui	a1,0x54
   111b4:	00054537          	lui	a0,0x54
   111b8:	d98b8713          	addi	a4,s7,-616
   111bc:	d50b0613          	addi	a2,s6,-688
   111c0:	de058593          	addi	a1,a1,-544 # 53de0 <CSWTCH.18+0x1cd8>
   111c4:	e0850513          	addi	a0,a0,-504 # 53e08 <CSWTCH.18+0x1d00>
   111c8:	435160ef          	jal	ra,27dfc <t_printf>
   111cc:	00054b37          	lui	s6,0x54
   111d0:	0006f537          	lui	a0,0x6f
   111d4:	e50b0593          	addi	a1,s6,-432 # 53e50 <CSWTCH.18+0x1d48>
   111d8:	d4850513          	addi	a0,a0,-696 # 6ed48 <t+0x1758>
   111dc:	1c4190ef          	jal	ra,2a3a0 <crypt>
   111e0:	40050663          	beqz	a0,115ec <crypt_main+0xb34>
   111e4:	baa1bc23          	sd	a0,-1096(gp) # a7910 <p>
   111e8:	bb81b503          	ld	a0,-1096(gp) # a7910 <p>
   111ec:	00054bb7          	lui	s7,0x54
   111f0:	e58b8593          	addi	a1,s7,-424 # 53e58 <CSWTCH.18+0x1d50>
   111f4:	4cc2e0ef          	jal	ra,3f6c0 <strcmp>
   111f8:	02050263          	beqz	a0,1121c <crypt_main+0x764>
   111fc:	bb81b683          	ld	a3,-1096(gp) # a7910 <p>
   11200:	000535b7          	lui	a1,0x53
   11204:	00054537          	lui	a0,0x54
   11208:	e58b8713          	addi	a4,s7,-424
   1120c:	e50b0613          	addi	a2,s6,-432
   11210:	fd058593          	addi	a1,a1,-48 # 52fd0 <CSWTCH.18+0xec8>
   11214:	eb850513          	addi	a0,a0,-328 # 53eb8 <CSWTCH.18+0x1db0>
   11218:	3e5160ef          	jal	ra,27dfc <t_printf>
   1121c:	00054b37          	lui	s6,0x54
   11220:	00053537          	lui	a0,0x53
   11224:	f00b0593          	addi	a1,s6,-256 # 53f00 <CSWTCH.18+0x1df8>
   11228:	ee850513          	addi	a0,a0,-280 # 52ee8 <CSWTCH.18+0xde0>
   1122c:	174190ef          	jal	ra,2a3a0 <crypt>
   11230:	3c050663          	beqz	a0,115fc <crypt_main+0xb44>
   11234:	baa1bc23          	sd	a0,-1096(gp) # a7910 <p>
   11238:	bb81b503          	ld	a0,-1096(gp) # a7910 <p>
   1123c:	00054bb7          	lui	s7,0x54
   11240:	f20b8593          	addi	a1,s7,-224 # 53f20 <CSWTCH.18+0x1e18>
   11244:	47c2e0ef          	jal	ra,3f6c0 <strcmp>
   11248:	02050263          	beqz	a0,1126c <crypt_main+0x7b4>
   1124c:	bb81b683          	ld	a3,-1096(gp) # a7910 <p>
   11250:	000535b7          	lui	a1,0x53
   11254:	00054537          	lui	a0,0x54
   11258:	f20b8713          	addi	a4,s7,-224
   1125c:	f00b0613          	addi	a2,s6,-256
   11260:	f3058593          	addi	a1,a1,-208 # 52f30 <CSWTCH.18+0xe28>
   11264:	f9850513          	addi	a0,a0,-104 # 53f98 <CSWTCH.18+0x1e90>
   11268:	395160ef          	jal	ra,27dfc <t_printf>
   1126c:	00054b37          	lui	s6,0x54
   11270:	00053537          	lui	a0,0x53
   11274:	fe0b0593          	addi	a1,s6,-32 # 53fe0 <CSWTCH.18+0x1ed8>
   11278:	0a850513          	addi	a0,a0,168 # 530a8 <CSWTCH.18+0xfa0>
   1127c:	124190ef          	jal	ra,2a3a0 <crypt>
   11280:	38050663          	beqz	a0,1160c <crypt_main+0xb54>
   11284:	baa1bc23          	sd	a0,-1096(gp) # a7910 <p>
   11288:	bb81b503          	ld	a0,-1096(gp) # a7910 <p>
   1128c:	00054bb7          	lui	s7,0x54
   11290:	ff0b8593          	addi	a1,s7,-16 # 53ff0 <CSWTCH.18+0x1ee8>
   11294:	42c2e0ef          	jal	ra,3f6c0 <strcmp>
   11298:	02050263          	beqz	a0,112bc <crypt_main+0x804>
   1129c:	bb81b683          	ld	a3,-1096(gp) # a7910 <p>
   112a0:	000535b7          	lui	a1,0x53
   112a4:	00054537          	lui	a0,0x54
   112a8:	ff0b8713          	addi	a4,s7,-16
   112ac:	fe0b0613          	addi	a2,s6,-32
   112b0:	0e058593          	addi	a1,a1,224 # 530e0 <CSWTCH.18+0xfd8>
   112b4:	05850513          	addi	a0,a0,88 # 54058 <CSWTCH.18+0x1f50>
   112b8:	345160ef          	jal	ra,27dfc <t_printf>
   112bc:	00054b37          	lui	s6,0x54
   112c0:	0a0b0593          	addi	a1,s6,160 # 540a0 <CSWTCH.18+0x1f98>
   112c4:	77048513          	addi	a0,s1,1904
   112c8:	0d8190ef          	jal	ra,2a3a0 <crypt>
   112cc:	34050863          	beqz	a0,1161c <crypt_main+0xb64>
   112d0:	baa1bc23          	sd	a0,-1096(gp) # a7910 <p>
   112d4:	bb81b503          	ld	a0,-1096(gp) # a7910 <p>
   112d8:	00054bb7          	lui	s7,0x54
   112dc:	0b0b8593          	addi	a1,s7,176 # 540b0 <CSWTCH.18+0x1fa8>
   112e0:	3e02e0ef          	jal	ra,3f6c0 <strcmp>
   112e4:	02050263          	beqz	a0,11308 <crypt_main+0x850>
   112e8:	bb81b683          	ld	a3,-1096(gp) # a7910 <p>
   112ec:	000545b7          	lui	a1,0x54
   112f0:	00054537          	lui	a0,0x54
   112f4:	0b0b8713          	addi	a4,s7,176
   112f8:	0a0b0613          	addi	a2,s6,160
   112fc:	94858593          	addi	a1,a1,-1720 # 53948 <CSWTCH.18+0x1840>
   11300:	11850513          	addi	a0,a0,280 # 54118 <CSWTCH.18+0x2010>
   11304:	2f9160ef          	jal	ra,27dfc <t_printf>
   11308:	00054b37          	lui	s6,0x54
   1130c:	160b0593          	addi	a1,s6,352 # 54160 <CSWTCH.18+0x2058>
   11310:	77048513          	addi	a0,s1,1904
   11314:	08c190ef          	jal	ra,2a3a0 <crypt>
   11318:	30050a63          	beqz	a0,1162c <crypt_main+0xb74>
   1131c:	baa1bc23          	sd	a0,-1096(gp) # a7910 <p>
   11320:	bb81b503          	ld	a0,-1096(gp) # a7910 <p>
   11324:	000544b7          	lui	s1,0x54
   11328:	17848593          	addi	a1,s1,376 # 54178 <CSWTCH.18+0x2070>
   1132c:	3942e0ef          	jal	ra,3f6c0 <strcmp>
   11330:	02050263          	beqz	a0,11354 <crypt_main+0x89c>
   11334:	bb81b683          	ld	a3,-1096(gp) # a7910 <p>
   11338:	000545b7          	lui	a1,0x54
   1133c:	00054537          	lui	a0,0x54
   11340:	17848713          	addi	a4,s1,376
   11344:	160b0613          	addi	a2,s6,352
   11348:	94858593          	addi	a1,a1,-1720 # 53948 <CSWTCH.18+0x1840>
   1134c:	1e050513          	addi	a0,a0,480 # 541e0 <CSWTCH.18+0x20d8>
   11350:	2ad160ef          	jal	ra,27dfc <t_printf>
   11354:	000544b7          	lui	s1,0x54
   11358:	22848593          	addi	a1,s1,552 # 54228 <CSWTCH.18+0x2120>
   1135c:	a48a8513          	addi	a0,s5,-1464
   11360:	040190ef          	jal	ra,2a3a0 <crypt>
   11364:	2c050c63          	beqz	a0,1163c <crypt_main+0xb84>
   11368:	baa1bc23          	sd	a0,-1096(gp) # a7910 <p>
   1136c:	bb81b503          	ld	a0,-1096(gp) # a7910 <p>
   11370:	00054ab7          	lui	s5,0x54
   11374:	238a8593          	addi	a1,s5,568 # 54238 <CSWTCH.18+0x2130>
   11378:	3482e0ef          	jal	ra,3f6c0 <strcmp>
   1137c:	02050263          	beqz	a0,113a0 <crypt_main+0x8e8>
   11380:	bb81b683          	ld	a3,-1096(gp) # a7910 <p>
   11384:	000545b7          	lui	a1,0x54
   11388:	00054537          	lui	a0,0x54
   1138c:	238a8713          	addi	a4,s5,568
   11390:	22848613          	addi	a2,s1,552
   11394:	a9858593          	addi	a1,a1,-1384 # 53a98 <CSWTCH.18+0x1990>
   11398:	2a050513          	addi	a0,a0,672 # 542a0 <CSWTCH.18+0x2198>
   1139c:	261160ef          	jal	ra,27dfc <t_printf>
   113a0:	000544b7          	lui	s1,0x54
   113a4:	2e848593          	addi	a1,s1,744 # 542e8 <CSWTCH.18+0x21e0>
   113a8:	b18a0513          	addi	a0,s4,-1256
   113ac:	7f5180ef          	jal	ra,2a3a0 <crypt>
   113b0:	28050e63          	beqz	a0,1164c <crypt_main+0xb94>
   113b4:	baa1bc23          	sd	a0,-1096(gp) # a7910 <p>
   113b8:	bb81b503          	ld	a0,-1096(gp) # a7910 <p>
   113bc:	00054a37          	lui	s4,0x54
   113c0:	310a0593          	addi	a1,s4,784 # 54310 <CSWTCH.18+0x2208>
   113c4:	2fc2e0ef          	jal	ra,3f6c0 <strcmp>
   113c8:	02050263          	beqz	a0,113ec <crypt_main+0x934>
   113cc:	bb81b683          	ld	a3,-1096(gp) # a7910 <p>
   113d0:	000545b7          	lui	a1,0x54
   113d4:	00054537          	lui	a0,0x54
   113d8:	310a0713          	addi	a4,s4,784
   113dc:	2e848613          	addi	a2,s1,744
   113e0:	b8058593          	addi	a1,a1,-1152 # 53b80 <CSWTCH.18+0x1a78>
   113e4:	38850513          	addi	a0,a0,904 # 54388 <CSWTCH.18+0x2280>
   113e8:	215160ef          	jal	ra,27dfc <t_printf>
   113ec:	000544b7          	lui	s1,0x54
   113f0:	3d048593          	addi	a1,s1,976 # 543d0 <CSWTCH.18+0x22c8>
   113f4:	c0898513          	addi	a0,s3,-1016
   113f8:	7a9180ef          	jal	ra,2a3a0 <crypt>
   113fc:	26050063          	beqz	a0,1165c <crypt_main+0xba4>
   11400:	baa1bc23          	sd	a0,-1096(gp) # a7910 <p>
   11404:	bb81b503          	ld	a0,-1096(gp) # a7910 <p>
   11408:	000549b7          	lui	s3,0x54
   1140c:	3f898593          	addi	a1,s3,1016 # 543f8 <CSWTCH.18+0x22f0>
   11410:	2b02e0ef          	jal	ra,3f6c0 <strcmp>
   11414:	02050263          	beqz	a0,11438 <crypt_main+0x980>
   11418:	bb81b683          	ld	a3,-1096(gp) # a7910 <p>
   1141c:	000545b7          	lui	a1,0x54
   11420:	00054537          	lui	a0,0x54
   11424:	3f898713          	addi	a4,s3,1016
   11428:	3d048613          	addi	a2,s1,976
   1142c:	cb058593          	addi	a1,a1,-848 # 53cb0 <CSWTCH.18+0x1ba8>
   11430:	47050513          	addi	a0,a0,1136 # 54470 <CSWTCH.18+0x2368>
   11434:	1c9160ef          	jal	ra,27dfc <t_printf>
   11438:	000544b7          	lui	s1,0x54
   1143c:	4b848593          	addi	a1,s1,1208 # 544b8 <CSWTCH.18+0x23b0>
   11440:	d7090513          	addi	a0,s2,-656
   11444:	75d180ef          	jal	ra,2a3a0 <crypt>
   11448:	22050263          	beqz	a0,1166c <crypt_main+0xbb4>
   1144c:	baa1bc23          	sd	a0,-1096(gp) # a7910 <p>
   11450:	bb81b503          	ld	a0,-1096(gp) # a7910 <p>
   11454:	00054937          	lui	s2,0x54
   11458:	4d890593          	addi	a1,s2,1240 # 544d8 <CSWTCH.18+0x23d0>
   1145c:	2642e0ef          	jal	ra,3f6c0 <strcmp>
   11460:	02050263          	beqz	a0,11484 <crypt_main+0x9cc>
   11464:	bb81b683          	ld	a3,-1096(gp) # a7910 <p>
   11468:	000545b7          	lui	a1,0x54
   1146c:	00054537          	lui	a0,0x54
   11470:	4d890713          	addi	a4,s2,1240
   11474:	4b848613          	addi	a2,s1,1208
   11478:	de058593          	addi	a1,a1,-544 # 53de0 <CSWTCH.18+0x1cd8>
   1147c:	55050513          	addi	a0,a0,1360 # 54550 <CSWTCH.18+0x2448>
   11480:	17d160ef          	jal	ra,27dfc <t_printf>
   11484:	bb01a503          	lw	a0,-1104(gp) # a7908 <t_status>
   11488:	04813083          	ld	ra,72(sp)
   1148c:	04013403          	ld	s0,64(sp)
   11490:	03813483          	ld	s1,56(sp)
   11494:	03013903          	ld	s2,48(sp)
   11498:	02813983          	ld	s3,40(sp)
   1149c:	02013a03          	ld	s4,32(sp)
   114a0:	01813a83          	ld	s5,24(sp)
   114a4:	01013b03          	ld	s6,16(sp)
   114a8:	00813b83          	ld	s7,8(sp)
   114ac:	0005051b          	sext.w	a0,a0
   114b0:	05010113          	addi	sp,sp,80
   114b4:	00008067          	ret
   114b8:	f0048793          	addi	a5,s1,-256
   114bc:	baf1bc23          	sd	a5,-1096(gp) # a7910 <p>
   114c0:	e40ff06f          	j	10b00 <crypt_main+0x48>
   114c4:	f0048793          	addi	a5,s1,-256
   114c8:	baf1bc23          	sd	a5,-1096(gp) # a7910 <p>
   114cc:	e84ff06f          	j	10b50 <crypt_main+0x98>
   114d0:	f0048793          	addi	a5,s1,-256
   114d4:	baf1bc23          	sd	a5,-1096(gp) # a7910 <p>
   114d8:	ec4ff06f          	j	10b9c <crypt_main+0xe4>
   114dc:	f0048793          	addi	a5,s1,-256
   114e0:	baf1bc23          	sd	a5,-1096(gp) # a7910 <p>
   114e4:	f08ff06f          	j	10bec <crypt_main+0x134>
   114e8:	f0048793          	addi	a5,s1,-256
   114ec:	baf1bc23          	sd	a5,-1096(gp) # a7910 <p>
   114f0:	f4cff06f          	j	10c3c <crypt_main+0x184>
   114f4:	f0048793          	addi	a5,s1,-256
   114f8:	baf1bc23          	sd	a5,-1096(gp) # a7910 <p>
   114fc:	f8cff06f          	j	10c88 <crypt_main+0x1d0>
   11500:	f0048793          	addi	a5,s1,-256
   11504:	baf1bc23          	sd	a5,-1096(gp) # a7910 <p>
   11508:	fc8ff06f          	j	10cd0 <crypt_main+0x218>
   1150c:	f0048793          	addi	a5,s1,-256
   11510:	baf1bc23          	sd	a5,-1096(gp) # a7910 <p>
   11514:	805ff06f          	j	10d18 <crypt_main+0x260>
   11518:	f0048793          	addi	a5,s1,-256
   1151c:	baf1bc23          	sd	a5,-1096(gp) # a7910 <p>
   11520:	849ff06f          	j	10d68 <crypt_main+0x2b0>
   11524:	f0048793          	addi	a5,s1,-256
   11528:	baf1bc23          	sd	a5,-1096(gp) # a7910 <p>
   1152c:	885ff06f          	j	10db0 <crypt_main+0x2f8>
   11530:	f0048793          	addi	a5,s1,-256
   11534:	baf1bc23          	sd	a5,-1096(gp) # a7910 <p>
   11538:	8c5ff06f          	j	10dfc <crypt_main+0x344>
   1153c:	f0048793          	addi	a5,s1,-256
   11540:	baf1bc23          	sd	a5,-1096(gp) # a7910 <p>
   11544:	901ff06f          	j	10e44 <crypt_main+0x38c>
   11548:	f0048793          	addi	a5,s1,-256
   1154c:	baf1bc23          	sd	a5,-1096(gp) # a7910 <p>
   11550:	941ff06f          	j	10e90 <crypt_main+0x3d8>
   11554:	f0048793          	addi	a5,s1,-256
   11558:	baf1bc23          	sd	a5,-1096(gp) # a7910 <p>
   1155c:	97dff06f          	j	10ed8 <crypt_main+0x420>
   11560:	f0048493          	addi	s1,s1,-256
   11564:	ba91bc23          	sd	s1,-1096(gp) # a7910 <p>
   11568:	9bdff06f          	j	10f24 <crypt_main+0x46c>
   1156c:	000537b7          	lui	a5,0x53
   11570:	f0078793          	addi	a5,a5,-256 # 52f00 <CSWTCH.18+0xdf8>
   11574:	baf1bc23          	sd	a5,-1096(gp) # a7910 <p>
   11578:	9f9ff06f          	j	10f70 <crypt_main+0x4b8>
   1157c:	000537b7          	lui	a5,0x53
   11580:	f0078793          	addi	a5,a5,-256 # 52f00 <CSWTCH.18+0xdf8>
   11584:	baf1bc23          	sd	a5,-1096(gp) # a7910 <p>
   11588:	a35ff06f          	j	10fbc <crypt_main+0x504>
   1158c:	000537b7          	lui	a5,0x53
   11590:	f0078793          	addi	a5,a5,-256 # 52f00 <CSWTCH.18+0xdf8>
   11594:	baf1bc23          	sd	a5,-1096(gp) # a7910 <p>
   11598:	a75ff06f          	j	1100c <crypt_main+0x554>
   1159c:	000537b7          	lui	a5,0x53
   115a0:	f0078793          	addi	a5,a5,-256 # 52f00 <CSWTCH.18+0xdf8>
   115a4:	baf1bc23          	sd	a5,-1096(gp) # a7910 <p>
   115a8:	ab1ff06f          	j	11058 <crypt_main+0x5a0>
   115ac:	000537b7          	lui	a5,0x53
   115b0:	f0078793          	addi	a5,a5,-256 # 52f00 <CSWTCH.18+0xdf8>
   115b4:	baf1bc23          	sd	a5,-1096(gp) # a7910 <p>
   115b8:	af1ff06f          	j	110a8 <crypt_main+0x5f0>
   115bc:	000537b7          	lui	a5,0x53
   115c0:	f0078793          	addi	a5,a5,-256 # 52f00 <CSWTCH.18+0xdf8>
   115c4:	baf1bc23          	sd	a5,-1096(gp) # a7910 <p>
   115c8:	b31ff06f          	j	110f8 <crypt_main+0x640>
   115cc:	000537b7          	lui	a5,0x53
   115d0:	f0078793          	addi	a5,a5,-256 # 52f00 <CSWTCH.18+0xdf8>
   115d4:	baf1bc23          	sd	a5,-1096(gp) # a7910 <p>
   115d8:	b71ff06f          	j	11148 <crypt_main+0x690>
   115dc:	000537b7          	lui	a5,0x53
   115e0:	f0078793          	addi	a5,a5,-256 # 52f00 <CSWTCH.18+0xdf8>
   115e4:	baf1bc23          	sd	a5,-1096(gp) # a7910 <p>
   115e8:	bb1ff06f          	j	11198 <crypt_main+0x6e0>
   115ec:	000537b7          	lui	a5,0x53
   115f0:	f0078793          	addi	a5,a5,-256 # 52f00 <CSWTCH.18+0xdf8>
   115f4:	baf1bc23          	sd	a5,-1096(gp) # a7910 <p>
   115f8:	bf1ff06f          	j	111e8 <crypt_main+0x730>
   115fc:	000537b7          	lui	a5,0x53
   11600:	f0078793          	addi	a5,a5,-256 # 52f00 <CSWTCH.18+0xdf8>
   11604:	baf1bc23          	sd	a5,-1096(gp) # a7910 <p>
   11608:	c31ff06f          	j	11238 <crypt_main+0x780>
   1160c:	000537b7          	lui	a5,0x53
   11610:	f0078793          	addi	a5,a5,-256 # 52f00 <CSWTCH.18+0xdf8>
   11614:	baf1bc23          	sd	a5,-1096(gp) # a7910 <p>
   11618:	c71ff06f          	j	11288 <crypt_main+0x7d0>
   1161c:	000537b7          	lui	a5,0x53
   11620:	f0078793          	addi	a5,a5,-256 # 52f00 <CSWTCH.18+0xdf8>
   11624:	baf1bc23          	sd	a5,-1096(gp) # a7910 <p>
   11628:	cadff06f          	j	112d4 <crypt_main+0x81c>
   1162c:	000537b7          	lui	a5,0x53
   11630:	f0078793          	addi	a5,a5,-256 # 52f00 <CSWTCH.18+0xdf8>
   11634:	baf1bc23          	sd	a5,-1096(gp) # a7910 <p>
   11638:	ce9ff06f          	j	11320 <crypt_main+0x868>
   1163c:	000537b7          	lui	a5,0x53
   11640:	f0078793          	addi	a5,a5,-256 # 52f00 <CSWTCH.18+0xdf8>
   11644:	baf1bc23          	sd	a5,-1096(gp) # a7910 <p>
   11648:	d25ff06f          	j	1136c <crypt_main+0x8b4>
   1164c:	000537b7          	lui	a5,0x53
   11650:	f0078793          	addi	a5,a5,-256 # 52f00 <CSWTCH.18+0xdf8>
   11654:	baf1bc23          	sd	a5,-1096(gp) # a7910 <p>
   11658:	d61ff06f          	j	113b8 <crypt_main+0x900>
   1165c:	000537b7          	lui	a5,0x53
   11660:	f0078793          	addi	a5,a5,-256 # 52f00 <CSWTCH.18+0xdf8>
   11664:	baf1bc23          	sd	a5,-1096(gp) # a7910 <p>
   11668:	d9dff06f          	j	11404 <crypt_main+0x94c>
   1166c:	000537b7          	lui	a5,0x53
   11670:	f0078793          	addi	a5,a5,-256 # 52f00 <CSWTCH.18+0xdf8>
   11674:	baf1bc23          	sd	a5,-1096(gp) # a7910 <p>
   11678:	dd9ff06f          	j	11450 <crypt_main+0x998>

000000000001167c <dirname_main>:
   1167c:	f6010113          	addi	sp,sp,-160
   11680:	00000513          	li	a0,0
   11684:	08813823          	sd	s0,144(sp)
   11688:	08113c23          	sd	ra,152(sp)
   1168c:	08913423          	sd	s1,136(sp)
   11690:	09213023          	sd	s2,128(sp)
   11694:	00052437          	lui	s0,0x52
   11698:	7841e0ef          	jal	ra,2fe1c <dirname>
   1169c:	3d840593          	addi	a1,s0,984 # 523d8 <CSWTCH.18+0x2d0>
   116a0:	0202e0ef          	jal	ra,3f6c0 <strcmp>
   116a4:	00050e63          	beqz	a0,116c0 <dirname_main+0x44>
   116a8:	00000513          	li	a0,0
   116ac:	7701e0ef          	jal	ra,2fe1c <dirname>
   116b0:	00050593          	mv	a1,a0
   116b4:	00054537          	lui	a0,0x54
   116b8:	59850513          	addi	a0,a0,1432 # 54598 <CSWTCH.18+0x2490>
   116bc:	740160ef          	jal	ra,27dfc <t_printf>
   116c0:	0006f4b7          	lui	s1,0x6f
   116c4:	d4848593          	addi	a1,s1,-696 # 6ed48 <t+0x1758>
   116c8:	01810513          	addi	a0,sp,24
   116cc:	0182e0ef          	jal	ra,3f6e4 <strcpy>
   116d0:	74c1e0ef          	jal	ra,2fe1c <dirname>
   116d4:	00050593          	mv	a1,a0
   116d8:	00a13423          	sd	a0,8(sp)
   116dc:	3d840513          	addi	a0,s0,984
   116e0:	7e12d0ef          	jal	ra,3f6c0 <strcmp>
   116e4:	00813603          	ld	a2,8(sp)
   116e8:	00050c63          	beqz	a0,11700 <dirname_main+0x84>
   116ec:	00054537          	lui	a0,0x54
   116f0:	3d840693          	addi	a3,s0,984
   116f4:	d4848593          	addi	a1,s1,-696
   116f8:	5e050513          	addi	a0,a0,1504 # 545e0 <CSWTCH.18+0x24d8>
   116fc:	700160ef          	jal	ra,27dfc <t_printf>
   11700:	000524b7          	lui	s1,0x52
   11704:	47048593          	addi	a1,s1,1136 # 52470 <CSWTCH.18+0x368>
   11708:	01810513          	addi	a0,sp,24
   1170c:	7d92d0ef          	jal	ra,3f6e4 <strcpy>
   11710:	70c1e0ef          	jal	ra,2fe1c <dirname>
   11714:	00054937          	lui	s2,0x54
   11718:	00050593          	mv	a1,a0
   1171c:	00a13423          	sd	a0,8(sp)
   11720:	62090513          	addi	a0,s2,1568 # 54620 <CSWTCH.18+0x2518>
   11724:	79d2d0ef          	jal	ra,3f6c0 <strcmp>
   11728:	00813603          	ld	a2,8(sp)
   1172c:	00050c63          	beqz	a0,11744 <dirname_main+0xc8>
   11730:	00054537          	lui	a0,0x54
   11734:	62090693          	addi	a3,s2,1568
   11738:	47048593          	addi	a1,s1,1136
   1173c:	62850513          	addi	a0,a0,1576 # 54628 <CSWTCH.18+0x2520>
   11740:	6bc160ef          	jal	ra,27dfc <t_printf>
   11744:	00052937          	lui	s2,0x52
   11748:	4d090593          	addi	a1,s2,1232 # 524d0 <CSWTCH.18+0x3c8>
   1174c:	01810513          	addi	a0,sp,24
   11750:	7952d0ef          	jal	ra,3f6e4 <strcpy>
   11754:	6c81e0ef          	jal	ra,2fe1c <dirname>
   11758:	000524b7          	lui	s1,0x52
   1175c:	00050593          	mv	a1,a0
   11760:	00a13423          	sd	a0,8(sp)
   11764:	57848513          	addi	a0,s1,1400 # 52578 <CSWTCH.18+0x470>
   11768:	7592d0ef          	jal	ra,3f6c0 <strcmp>
   1176c:	00813603          	ld	a2,8(sp)
   11770:	00050c63          	beqz	a0,11788 <dirname_main+0x10c>
   11774:	00054537          	lui	a0,0x54
   11778:	57848693          	addi	a3,s1,1400
   1177c:	4d090593          	addi	a1,s2,1232
   11780:	66850513          	addi	a0,a0,1640 # 54668 <CSWTCH.18+0x2560>
   11784:	678160ef          	jal	ra,27dfc <t_printf>
   11788:	00052937          	lui	s2,0x52
   1178c:	4d890593          	addi	a1,s2,1240 # 524d8 <CSWTCH.18+0x3d0>
   11790:	01810513          	addi	a0,sp,24
   11794:	7512d0ef          	jal	ra,3f6e4 <strcpy>
   11798:	6841e0ef          	jal	ra,2fe1c <dirname>
   1179c:	00050593          	mv	a1,a0
   117a0:	00a13423          	sd	a0,8(sp)
   117a4:	3d840513          	addi	a0,s0,984
   117a8:	7192d0ef          	jal	ra,3f6c0 <strcmp>
   117ac:	00813603          	ld	a2,8(sp)
   117b0:	00050c63          	beqz	a0,117c8 <dirname_main+0x14c>
   117b4:	00054537          	lui	a0,0x54
   117b8:	3d840693          	addi	a3,s0,984
   117bc:	4d890593          	addi	a1,s2,1240
   117c0:	6a850513          	addi	a0,a0,1704 # 546a8 <CSWTCH.18+0x25a0>
   117c4:	638160ef          	jal	ra,27dfc <t_printf>
   117c8:	00052937          	lui	s2,0x52
   117cc:	52890593          	addi	a1,s2,1320 # 52528 <CSWTCH.18+0x420>
   117d0:	01810513          	addi	a0,sp,24
   117d4:	7112d0ef          	jal	ra,3f6e4 <strcpy>
   117d8:	6441e0ef          	jal	ra,2fe1c <dirname>
   117dc:	00050593          	mv	a1,a0
   117e0:	00a13423          	sd	a0,8(sp)
   117e4:	3d840513          	addi	a0,s0,984
   117e8:	6d92d0ef          	jal	ra,3f6c0 <strcmp>
   117ec:	00813603          	ld	a2,8(sp)
   117f0:	00050c63          	beqz	a0,11808 <dirname_main+0x18c>
   117f4:	00054537          	lui	a0,0x54
   117f8:	3d840693          	addi	a3,s0,984
   117fc:	52890593          	addi	a1,s2,1320
   11800:	6e850513          	addi	a0,a0,1768 # 546e8 <CSWTCH.18+0x25e0>
   11804:	5f8160ef          	jal	ra,27dfc <t_printf>
   11808:	57848593          	addi	a1,s1,1400
   1180c:	01810513          	addi	a0,sp,24
   11810:	6d52d0ef          	jal	ra,3f6e4 <strcpy>
   11814:	6081e0ef          	jal	ra,2fe1c <dirname>
   11818:	00050593          	mv	a1,a0
   1181c:	00a13423          	sd	a0,8(sp)
   11820:	57848513          	addi	a0,s1,1400
   11824:	69d2d0ef          	jal	ra,3f6c0 <strcmp>
   11828:	00813603          	ld	a2,8(sp)
   1182c:	00050c63          	beqz	a0,11844 <dirname_main+0x1c8>
   11830:	00054537          	lui	a0,0x54
   11834:	57848693          	addi	a3,s1,1400
   11838:	57848593          	addi	a1,s1,1400
   1183c:	72850513          	addi	a0,a0,1832 # 54728 <CSWTCH.18+0x2620>
   11840:	5bc160ef          	jal	ra,27dfc <t_printf>
   11844:	00052937          	lui	s2,0x52
   11848:	5c890593          	addi	a1,s2,1480 # 525c8 <CSWTCH.18+0x4c0>
   1184c:	01810513          	addi	a0,sp,24
   11850:	6952d0ef          	jal	ra,3f6e4 <strcpy>
   11854:	5c81e0ef          	jal	ra,2fe1c <dirname>
   11858:	00050593          	mv	a1,a0
   1185c:	00a13423          	sd	a0,8(sp)
   11860:	57848513          	addi	a0,s1,1400
   11864:	65d2d0ef          	jal	ra,3f6c0 <strcmp>
   11868:	00813603          	ld	a2,8(sp)
   1186c:	00050c63          	beqz	a0,11884 <dirname_main+0x208>
   11870:	00054537          	lui	a0,0x54
   11874:	57848693          	addi	a3,s1,1400
   11878:	5c890593          	addi	a1,s2,1480
   1187c:	76850513          	addi	a0,a0,1896 # 54768 <CSWTCH.18+0x2660>
   11880:	57c160ef          	jal	ra,27dfc <t_printf>
   11884:	3d840593          	addi	a1,s0,984
   11888:	01810513          	addi	a0,sp,24
   1188c:	6592d0ef          	jal	ra,3f6e4 <strcpy>
   11890:	58c1e0ef          	jal	ra,2fe1c <dirname>
   11894:	00050593          	mv	a1,a0
   11898:	00a13423          	sd	a0,8(sp)
   1189c:	3d840513          	addi	a0,s0,984
   118a0:	6212d0ef          	jal	ra,3f6c0 <strcmp>
   118a4:	00813603          	ld	a2,8(sp)
   118a8:	00050c63          	beqz	a0,118c0 <dirname_main+0x244>
   118ac:	00054537          	lui	a0,0x54
   118b0:	3d840693          	addi	a3,s0,984
   118b4:	3d840593          	addi	a1,s0,984
   118b8:	7a850513          	addi	a0,a0,1960 # 547a8 <CSWTCH.18+0x26a0>
   118bc:	540160ef          	jal	ra,27dfc <t_printf>
   118c0:	000534b7          	lui	s1,0x53
   118c4:	0d848593          	addi	a1,s1,216 # 530d8 <CSWTCH.18+0xfd0>
   118c8:	01810513          	addi	a0,sp,24
   118cc:	6192d0ef          	jal	ra,3f6e4 <strcpy>
   118d0:	54c1e0ef          	jal	ra,2fe1c <dirname>
   118d4:	00050593          	mv	a1,a0
   118d8:	00a13423          	sd	a0,8(sp)
   118dc:	3d840513          	addi	a0,s0,984
   118e0:	5e12d0ef          	jal	ra,3f6c0 <strcmp>
   118e4:	00813603          	ld	a2,8(sp)
   118e8:	00050c63          	beqz	a0,11900 <dirname_main+0x284>
   118ec:	00054537          	lui	a0,0x54
   118f0:	3d840693          	addi	a3,s0,984
   118f4:	0d848593          	addi	a1,s1,216
   118f8:	7e850513          	addi	a0,a0,2024 # 547e8 <CSWTCH.18+0x26e0>
   118fc:	500160ef          	jal	ra,27dfc <t_printf>
   11900:	bb01a503          	lw	a0,-1104(gp) # a7908 <t_status>
   11904:	09813083          	ld	ra,152(sp)
   11908:	09013403          	ld	s0,144(sp)
   1190c:	08813483          	ld	s1,136(sp)
   11910:	08013903          	ld	s2,128(sp)
   11914:	0005051b          	sext.w	a0,a0
   11918:	0a010113          	addi	sp,sp,160
   1191c:	00008067          	ret

0000000000011920 <env_main>:
   11920:	fc010113          	addi	sp,sp,-64
   11924:	03213023          	sd	s2,32(sp)
   11928:	c281b783          	ld	a5,-984(gp) # a7980 <__environ>
   1192c:	02113c23          	sd	ra,56(sp)
   11930:	02813823          	sd	s0,48(sp)
   11934:	02913423          	sd	s1,40(sp)
   11938:	01313c23          	sd	s3,24(sp)
   1193c:	01413823          	sd	s4,16(sp)
   11940:	00079863          	bnez	a5,11950 <env_main+0x30>
   11944:	00055537          	lui	a0,0x55
   11948:	82850513          	addi	a0,a0,-2008 # 54828 <CSWTCH.18+0x2720>
   1194c:	4b0160ef          	jal	ra,27dfc <t_printf>
   11950:	6401a0ef          	jal	ra,2bf90 <clearenv>
   11954:	00051a63          	bnez	a0,11968 <env_main+0x48>
   11958:	c281b783          	ld	a5,-984(gp) # a7980 <__environ>
   1195c:	02078463          	beqz	a5,11984 <env_main+0x64>
   11960:	0007b783          	ld	a5,0(a5)
   11964:	02078063          	beqz	a5,11984 <env_main+0x64>
   11968:	3291a0ef          	jal	ra,2c490 <__errno_location>
   1196c:	00052503          	lw	a0,0(a0)
   11970:	3791a0ef          	jal	ra,2c4e8 <strerror>
   11974:	00050593          	mv	a1,a0
   11978:	00055537          	lui	a0,0x55
   1197c:	85850513          	addi	a0,a0,-1960 # 54858 <CSWTCH.18+0x2750>
   11980:	47c160ef          	jal	ra,27dfc <t_printf>
   11984:	000554b7          	lui	s1,0x55
   11988:	88048513          	addi	a0,s1,-1920 # 54880 <CSWTCH.18+0x2778>
   1198c:	00d1a0ef          	jal	ra,2c198 <putenv>
   11990:	00050993          	mv	s3,a0
   11994:	2fd1a0ef          	jal	ra,2c490 <__errno_location>
   11998:	00050413          	mv	s0,a0
   1199c:	00098e63          	beqz	s3,119b8 <env_main+0x98>
   119a0:	00052503          	lw	a0,0(a0)
   119a4:	3451a0ef          	jal	ra,2c4e8 <strerror>
   119a8:	00050593          	mv	a1,a0
   119ac:	00055537          	lui	a0,0x55
   119b0:	88850513          	addi	a0,a0,-1912 # 54888 <CSWTCH.18+0x2780>
   119b4:	448160ef          	jal	ra,27dfc <t_printf>
   119b8:	c281b783          	ld	a5,-984(gp) # a7980 <__environ>
   119bc:	88048593          	addi	a1,s1,-1920
   119c0:	0007b503          	ld	a0,0(a5)
   119c4:	4fd2d0ef          	jal	ra,3f6c0 <strcmp>
   119c8:	00050c63          	beqz	a0,119e0 <env_main+0xc0>
   119cc:	c281b783          	ld	a5,-984(gp) # a7980 <__environ>
   119d0:	00055537          	lui	a0,0x55
   119d4:	8b050513          	addi	a0,a0,-1872 # 548b0 <CSWTCH.18+0x27a8>
   119d8:	0007b583          	ld	a1,0(a5)
   119dc:	420160ef          	jal	ra,27dfc <t_printf>
   119e0:	c281b783          	ld	a5,-984(gp) # a7980 <__environ>
   119e4:	0087b583          	ld	a1,8(a5)
   119e8:	00058863          	beqz	a1,119f8 <env_main+0xd8>
   119ec:	00055537          	lui	a0,0x55
   119f0:	90050513          	addi	a0,a0,-1792 # 54900 <CSWTCH.18+0x27f8>
   119f4:	408160ef          	jal	ra,27dfc <t_printf>
   119f8:	000554b7          	lui	s1,0x55
   119fc:	93848513          	addi	a0,s1,-1736 # 54938 <CSWTCH.18+0x2830>
   11a00:	5d41a0ef          	jal	ra,2bfd4 <getenv>
   11a04:	00050993          	mv	s3,a0
   11a08:	00051863          	bnez	a0,11a18 <env_main+0xf8>
   11a0c:	00055537          	lui	a0,0x55
   11a10:	94050513          	addi	a0,a0,-1728 # 54940 <CSWTCH.18+0x2838>
   11a14:	3e8160ef          	jal	ra,27dfc <t_printf>
   11a18:	000555b7          	lui	a1,0x55
   11a1c:	e9058593          	addi	a1,a1,-368 # 54e90 <CSWTCH.18+0x2d88>
   11a20:	00098513          	mv	a0,s3
   11a24:	49d2d0ef          	jal	ra,3f6c0 <strcmp>
   11a28:	00050a63          	beqz	a0,11a3c <env_main+0x11c>
   11a2c:	00055537          	lui	a0,0x55
   11a30:	00098593          	mv	a1,s3
   11a34:	97850513          	addi	a0,a0,-1672 # 54978 <CSWTCH.18+0x2870>
   11a38:	3c4160ef          	jal	ra,27dfc <t_printf>
   11a3c:	93848513          	addi	a0,s1,-1736
   11a40:	1751a0ef          	jal	ra,2c3b4 <unsetenv>
   11a44:	00050e63          	beqz	a0,11a60 <env_main+0x140>
   11a48:	00042503          	lw	a0,0(s0)
   11a4c:	29d1a0ef          	jal	ra,2c4e8 <strerror>
   11a50:	00050593          	mv	a1,a0
   11a54:	00055537          	lui	a0,0x55
   11a58:	9b850513          	addi	a0,a0,-1608 # 549b8 <CSWTCH.18+0x28b0>
   11a5c:	3a0160ef          	jal	ra,27dfc <t_printf>
   11a60:	c281b783          	ld	a5,-984(gp) # a7980 <__environ>
   11a64:	0007b583          	ld	a1,0(a5)
   11a68:	00058863          	beqz	a1,11a78 <env_main+0x158>
   11a6c:	00055537          	lui	a0,0x55
   11a70:	9e050513          	addi	a0,a0,-1568 # 549e0 <CSWTCH.18+0x28d8>
   11a74:	388160ef          	jal	ra,27dfc <t_printf>
   11a78:	93848513          	addi	a0,s1,-1736
   11a7c:	5581a0ef          	jal	ra,2bfd4 <getenv>
   11a80:	00050593          	mv	a1,a0
   11a84:	00050863          	beqz	a0,11a94 <env_main+0x174>
   11a88:	00055537          	lui	a0,0x55
   11a8c:	a1050513          	addi	a0,a0,-1520 # 54a10 <CSWTCH.18+0x2908>
   11a90:	36c160ef          	jal	ra,27dfc <t_printf>
   11a94:	000559b7          	lui	s3,0x55
   11a98:	00042023          	sw	zero,0(s0)
   11a9c:	00000613          	li	a2,0
   11aa0:	a4898593          	addi	a1,s3,-1464 # 54a48 <CSWTCH.18+0x2940>
   11aa4:	93848513          	addi	a0,s1,-1736
   11aa8:	0051a0ef          	jal	ra,2c2ac <setenv>
   11aac:	00050e63          	beqz	a0,11ac8 <env_main+0x1a8>
   11ab0:	00042503          	lw	a0,0(s0)
   11ab4:	2351a0ef          	jal	ra,2c4e8 <strerror>
   11ab8:	00050593          	mv	a1,a0
   11abc:	00055537          	lui	a0,0x55
   11ac0:	a5050513          	addi	a0,a0,-1456 # 54a50 <CSWTCH.18+0x2948>
   11ac4:	338160ef          	jal	ra,27dfc <t_printf>
   11ac8:	93848513          	addi	a0,s1,-1736
   11acc:	5081a0ef          	jal	ra,2bfd4 <getenv>
   11ad0:	a4898593          	addi	a1,s3,-1464
   11ad4:	00050a13          	mv	s4,a0
   11ad8:	3e92d0ef          	jal	ra,3f6c0 <strcmp>
   11adc:	00050a63          	beqz	a0,11af0 <env_main+0x1d0>
   11ae0:	00055537          	lui	a0,0x55
   11ae4:	000a0593          	mv	a1,s4
   11ae8:	a7850513          	addi	a0,a0,-1416 # 54a78 <CSWTCH.18+0x2970>
   11aec:	310160ef          	jal	ra,27dfc <t_printf>
   11af0:	c281b783          	ld	a5,-984(gp) # a7980 <__environ>
   11af4:	000555b7          	lui	a1,0x55
   11af8:	ab858593          	addi	a1,a1,-1352 # 54ab8 <CSWTCH.18+0x29b0>
   11afc:	0007b503          	ld	a0,0(a5)
   11b00:	3c12d0ef          	jal	ra,3f6c0 <strcmp>
   11b04:	00050c63          	beqz	a0,11b1c <env_main+0x1fc>
   11b08:	c281b783          	ld	a5,-984(gp) # a7980 <__environ>
   11b0c:	00055537          	lui	a0,0x55
   11b10:	ac050513          	addi	a0,a0,-1344 # 54ac0 <CSWTCH.18+0x29b8>
   11b14:	0007b583          	ld	a1,0(a5)
   11b18:	2e4160ef          	jal	ra,27dfc <t_printf>
   11b1c:	00058937          	lui	s2,0x58
   11b20:	00042023          	sw	zero,0(s0)
   11b24:	00000613          	li	a2,0
   11b28:	45890593          	addi	a1,s2,1112 # 58458 <CSWTCH.18+0x6350>
   11b2c:	93848513          	addi	a0,s1,-1736
   11b30:	77c1a0ef          	jal	ra,2c2ac <setenv>
   11b34:	00050e63          	beqz	a0,11b50 <env_main+0x230>
   11b38:	00042503          	lw	a0,0(s0)
   11b3c:	1ad1a0ef          	jal	ra,2c4e8 <strerror>
   11b40:	00050593          	mv	a1,a0
   11b44:	00055537          	lui	a0,0x55
   11b48:	b1050513          	addi	a0,a0,-1264 # 54b10 <CSWTCH.18+0x2a08>
   11b4c:	2b0160ef          	jal	ra,27dfc <t_printf>
   11b50:	93848513          	addi	a0,s1,-1736
   11b54:	4801a0ef          	jal	ra,2bfd4 <getenv>
   11b58:	a4898593          	addi	a1,s3,-1464
   11b5c:	00050a13          	mv	s4,a0
   11b60:	3612d0ef          	jal	ra,3f6c0 <strcmp>
   11b64:	00050a63          	beqz	a0,11b78 <env_main+0x258>
   11b68:	00055537          	lui	a0,0x55
   11b6c:	000a0593          	mv	a1,s4
   11b70:	b3850513          	addi	a0,a0,-1224 # 54b38 <CSWTCH.18+0x2a30>
   11b74:	288160ef          	jal	ra,27dfc <t_printf>
   11b78:	00042023          	sw	zero,0(s0)
   11b7c:	00100613          	li	a2,1
   11b80:	45890593          	addi	a1,s2,1112
   11b84:	93848513          	addi	a0,s1,-1736
   11b88:	7241a0ef          	jal	ra,2c2ac <setenv>
   11b8c:	00050e63          	beqz	a0,11ba8 <env_main+0x288>
   11b90:	00042503          	lw	a0,0(s0)
   11b94:	1551a0ef          	jal	ra,2c4e8 <strerror>
   11b98:	00050593          	mv	a1,a0
   11b9c:	00055537          	lui	a0,0x55
   11ba0:	b7850513          	addi	a0,a0,-1160 # 54b78 <CSWTCH.18+0x2a70>
   11ba4:	258160ef          	jal	ra,27dfc <t_printf>
   11ba8:	93848513          	addi	a0,s1,-1736
   11bac:	4281a0ef          	jal	ra,2bfd4 <getenv>
   11bb0:	45890593          	addi	a1,s2,1112
   11bb4:	00050493          	mv	s1,a0
   11bb8:	3092d0ef          	jal	ra,3f6c0 <strcmp>
   11bbc:	00050a63          	beqz	a0,11bd0 <env_main+0x2b0>
   11bc0:	00055537          	lui	a0,0x55
   11bc4:	00048593          	mv	a1,s1
   11bc8:	ba050513          	addi	a0,a0,-1120 # 54ba0 <CSWTCH.18+0x2a98>
   11bcc:	230160ef          	jal	ra,27dfc <t_printf>
   11bd0:	0006f537          	lui	a0,0x6f
   11bd4:	d4850593          	addi	a1,a0,-696 # 6ed48 <t+0x1758>
   11bd8:	00042023          	sw	zero,0(s0)
   11bdc:	00000613          	li	a2,0
   11be0:	d4850513          	addi	a0,a0,-696
   11be4:	6c81a0ef          	jal	ra,2c2ac <setenv>
   11be8:	fff00793          	li	a5,-1
   11bec:	00050593          	mv	a1,a0
   11bf0:	00f51863          	bne	a0,a5,11c00 <env_main+0x2e0>
   11bf4:	00042703          	lw	a4,0(s0)
   11bf8:	01600793          	li	a5,22
   11bfc:	02f70a63          	beq	a4,a5,11c30 <env_main+0x310>
   11c00:	00042603          	lw	a2,0(s0)
   11c04:	00b13423          	sd	a1,8(sp)
   11c08:	00060513          	mv	a0,a2
   11c0c:	00c13023          	sd	a2,0(sp)
   11c10:	0d91a0ef          	jal	ra,2c4e8 <strerror>
   11c14:	00013603          	ld	a2,0(sp)
   11c18:	00813583          	ld	a1,8(sp)
   11c1c:	00050693          	mv	a3,a0
   11c20:	00055537          	lui	a0,0x55
   11c24:	01600713          	li	a4,22
   11c28:	be050513          	addi	a0,a0,-1056 # 54be0 <CSWTCH.18+0x2ad8>
   11c2c:	1d0160ef          	jal	ra,27dfc <t_printf>
   11c30:	bb01a503          	lw	a0,-1104(gp) # a7908 <t_status>
   11c34:	03813083          	ld	ra,56(sp)
   11c38:	03013403          	ld	s0,48(sp)
   11c3c:	02813483          	ld	s1,40(sp)
   11c40:	02013903          	ld	s2,32(sp)
   11c44:	01813983          	ld	s3,24(sp)
   11c48:	01013a03          	ld	s4,16(sp)
   11c4c:	0005051b          	sext.w	a0,a0
   11c50:	04010113          	addi	sp,sp,64
   11c54:	00008067          	ret

0000000000011c58 <fdopen_main>:
   11c58:	fb010113          	addi	sp,sp,-80
   11c5c:	000555b7          	lui	a1,0x55
   11c60:	01600613          	li	a2,22
   11c64:	ed058593          	addi	a1,a1,-304 # 54ed0 <CSWTCH.18+0x2dc8>
   11c68:	00810513          	addi	a0,sp,8
   11c6c:	04113423          	sd	ra,72(sp)
   11c70:	04813023          	sd	s0,64(sp)
   11c74:	02913c23          	sd	s1,56(sp)
   11c78:	03213823          	sd	s2,48(sp)
   11c7c:	03313423          	sd	s3,40(sp)
   11c80:	5b92c0ef          	jal	ra,3ea38 <memcpy>
   11c84:	00d1a0ef          	jal	ra,2c490 <__errno_location>
   11c88:	00052023          	sw	zero,0(a0)
   11c8c:	00050413          	mv	s0,a0
   11c90:	00810513          	addi	a0,sp,8
   11c94:	3592e0ef          	jal	ra,407ec <mkstemp>
   11c98:	00200793          	li	a5,2
   11c9c:	00050493          	mv	s1,a0
   11ca0:	00a7ce63          	blt	a5,a0,11cbc <fdopen_main+0x64>
   11ca4:	00042603          	lw	a2,0(s0)
   11ca8:	000555b7          	lui	a1,0x55
   11cac:	00055537          	lui	a0,0x55
   11cb0:	c3858593          	addi	a1,a1,-968 # 54c38 <CSWTCH.18+0x2b30>
   11cb4:	c5050513          	addi	a0,a0,-944 # 54c50 <CSWTCH.18+0x2b48>
   11cb8:	144160ef          	jal	ra,27dfc <t_printf>
   11cbc:	000559b7          	lui	s3,0x55
   11cc0:	00042023          	sw	zero,0(s0)
   11cc4:	00600613          	li	a2,6
   11cc8:	c8898593          	addi	a1,s3,-888 # 54c88 <CSWTCH.18+0x2b80>
   11ccc:	00048513          	mv	a0,s1
   11cd0:	2bc340ef          	jal	ra,45f8c <write>
   11cd4:	00600793          	li	a5,6
   11cd8:	00f50e63          	beq	a0,a5,11cf4 <fdopen_main+0x9c>
   11cdc:	00042603          	lw	a2,0(s0)
   11ce0:	000555b7          	lui	a1,0x55
   11ce4:	00055537          	lui	a0,0x55
   11ce8:	c9058593          	addi	a1,a1,-880 # 54c90 <CSWTCH.18+0x2b88>
   11cec:	cb050513          	addi	a0,a0,-848 # 54cb0 <CSWTCH.18+0x2ba8>
   11cf0:	10c160ef          	jal	ra,27dfc <t_printf>
   11cf4:	000555b7          	lui	a1,0x55
   11cf8:	00042023          	sw	zero,0(s0)
   11cfc:	ce858593          	addi	a1,a1,-792 # 54ce8 <CSWTCH.18+0x2be0>
   11d00:	00048513          	mv	a0,s1
   11d04:	3b1260ef          	jal	ra,388b4 <__fdopen>
   11d08:	00050913          	mv	s2,a0
   11d0c:	06051a63          	bnez	a0,11d80 <fdopen_main+0x128>
   11d10:	00042603          	lw	a2,0(s0)
   11d14:	000555b7          	lui	a1,0x55
   11d18:	00055537          	lui	a0,0x55
   11d1c:	cf058593          	addi	a1,a1,-784 # 54cf0 <CSWTCH.18+0x2be8>
   11d20:	d0850513          	addi	a0,a0,-760 # 54d08 <CSWTCH.18+0x2c00>
   11d24:	0d8160ef          	jal	ra,27dfc <t_printf>
   11d28:	00200793          	li	a5,2
   11d2c:	0297d863          	bge	a5,s1,11d5c <fdopen_main+0x104>
   11d30:	00042023          	sw	zero,0(s0)
   11d34:	00810513          	addi	a0,sp,8
   11d38:	224340ef          	jal	ra,45f5c <unlink>
   11d3c:	fff00793          	li	a5,-1
   11d40:	00f51e63          	bne	a0,a5,11d5c <fdopen_main+0x104>
   11d44:	00042603          	lw	a2,0(s0)
   11d48:	000555b7          	lui	a1,0x55
   11d4c:	00055537          	lui	a0,0x55
   11d50:	e8058593          	addi	a1,a1,-384 # 54e80 <CSWTCH.18+0x2d78>
   11d54:	e9850513          	addi	a0,a0,-360 # 54e98 <CSWTCH.18+0x2d90>
   11d58:	0a4160ef          	jal	ra,27dfc <t_printf>
   11d5c:	bb01a503          	lw	a0,-1104(gp) # a7908 <t_status>
   11d60:	04813083          	ld	ra,72(sp)
   11d64:	04013403          	ld	s0,64(sp)
   11d68:	03813483          	ld	s1,56(sp)
   11d6c:	03013903          	ld	s2,48(sp)
   11d70:	02813983          	ld	s3,40(sp)
   11d74:	0005051b          	sext.w	a0,a0
   11d78:	05010113          	addi	sp,sp,80
   11d7c:	00008067          	ret
   11d80:	00042023          	sw	zero,0(s0)
   11d84:	7ed270ef          	jal	ra,39d70 <__ftello>
   11d88:	00600793          	li	a5,6
   11d8c:	00f50e63          	beq	a0,a5,11da8 <fdopen_main+0x150>
   11d90:	00042603          	lw	a2,0(s0)
   11d94:	000555b7          	lui	a1,0x55
   11d98:	00055537          	lui	a0,0x55
   11d9c:	d4058593          	addi	a1,a1,-704 # 54d40 <CSWTCH.18+0x2c38>
   11da0:	d5050513          	addi	a0,a0,-688 # 54d50 <CSWTCH.18+0x2c48>
   11da4:	058160ef          	jal	ra,27dfc <t_printf>
   11da8:	00042023          	sw	zero,0(s0)
   11dac:	00000613          	li	a2,0
   11db0:	00000593          	li	a1,0
   11db4:	00090513          	mv	a0,s2
   11db8:	6c9270ef          	jal	ra,39c80 <__fseeko>
   11dbc:	00050e63          	beqz	a0,11dd8 <fdopen_main+0x180>
   11dc0:	00042603          	lw	a2,0(s0)
   11dc4:	000555b7          	lui	a1,0x55
   11dc8:	00055537          	lui	a0,0x55
   11dcc:	d8858593          	addi	a1,a1,-632 # 54d88 <CSWTCH.18+0x2c80>
   11dd0:	da850513          	addi	a0,a0,-600 # 54da8 <CSWTCH.18+0x2ca0>
   11dd4:	028160ef          	jal	ra,27dfc <t_printf>
   11dd8:	00042023          	sw	zero,0(s0)
   11ddc:	00090613          	mv	a2,s2
   11de0:	00600593          	li	a1,6
   11de4:	00010513          	mv	a0,sp
   11de8:	2a8270ef          	jal	ra,39090 <fgets>
   11dec:	00051e63          	bnez	a0,11e08 <fdopen_main+0x1b0>
   11df0:	00042603          	lw	a2,0(s0)
   11df4:	000555b7          	lui	a1,0x55
   11df8:	00055537          	lui	a0,0x55
   11dfc:	de058593          	addi	a1,a1,-544 # 54de0 <CSWTCH.18+0x2cd8>
   11e00:	e0050513          	addi	a0,a0,-512 # 54e00 <CSWTCH.18+0x2cf8>
   11e04:	7f9150ef          	jal	ra,27dfc <t_printf>
   11e08:	c8898593          	addi	a1,s3,-888
   11e0c:	00010513          	mv	a0,sp
   11e10:	0b12d0ef          	jal	ra,3f6c0 <strcmp>
   11e14:	00050a63          	beqz	a0,11e28 <fdopen_main+0x1d0>
   11e18:	00055537          	lui	a0,0x55
   11e1c:	00010593          	mv	a1,sp
   11e20:	e3850513          	addi	a0,a0,-456 # 54e38 <CSWTCH.18+0x2d30>
   11e24:	7d9150ef          	jal	ra,27dfc <t_printf>
   11e28:	00090513          	mv	a0,s2
   11e2c:	65d260ef          	jal	ra,38c88 <fclose>
   11e30:	ef9ff06f          	j	11d28 <fdopen_main+0xd0>

0000000000011e34 <fnmatch_main>:
   11e34:	f7010113          	addi	sp,sp,-144
   11e38:	07413023          	sd	s4,96(sp)
   11e3c:	000a6a37          	lui	s4,0xa6
   11e40:	07313423          	sd	s3,104(sp)
   11e44:	05613823          	sd	s6,80(sp)
   11e48:	000a0993          	mv	s3,s4
   11e4c:	05713423          	sd	s7,72(sp)
   11e50:	0006fb37          	lui	s6,0x6f
   11e54:	00052bb7          	lui	s7,0x52
   11e58:	08813023          	sd	s0,128(sp)
   11e5c:	05513c23          	sd	s5,88(sp)
   11e60:	05813023          	sd	s8,64(sp)
   11e64:	05098413          	addi	s0,s3,80
   11e68:	08113423          	sd	ra,136(sp)
   11e6c:	06913c23          	sd	s1,120(sp)
   11e70:	07213823          	sd	s2,112(sp)
   11e74:	03913c23          	sd	s9,56(sp)
   11e78:	03a13823          	sd	s10,48(sp)
   11e7c:	03b13423          	sd	s11,40(sp)
   11e80:	74098993          	addi	s3,s3,1856
   11e84:	000a0a13          	mv	s4,s4
   11e88:	00055c37          	lui	s8,0x55
   11e8c:	d48b0b13          	addi	s6,s6,-696 # 6ed48 <t+0x1758>
   11e90:	030b8b93          	addi	s7,s7,48 # 52030 <__clzdi2+0x84>
   11e94:	01042603          	lw	a2,16(s0)
   11e98:	00843583          	ld	a1,8(s0)
   11e9c:	00043503          	ld	a0,0(s0)
   11ea0:	570200ef          	jal	ra,32410 <fnmatch>
   11ea4:	01442d83          	lw	s11,20(s0)
   11ea8:	00050913          	mv	s2,a0
   11eac:	05b50863          	beq	a0,s11,11efc <fnmatch_main+0xc8>
   11eb0:	00100793          	li	a5,1
   11eb4:	00f51663          	bne	a0,a5,11ec0 <fnmatch_main+0x8c>
   11eb8:	fff00793          	li	a5,-1
   11ebc:	04fd8063          	beq	s11,a5,11efc <fnmatch_main+0xc8>
   11ec0:	01042483          	lw	s1,16(s0)
   11ec4:	00043c83          	ld	s9,0(s0)
   11ec8:	00843d03          	ld	s10,8(s0)
   11ecc:	0e049a63          	bnez	s1,11fc0 <fnmatch_main+0x18c>
   11ed0:	000725b7          	lui	a1,0x72
   11ed4:	6f858593          	addi	a1,a1,1784 # 726f8 <t+0x5108>
   11ed8:	f1818513          	addi	a0,gp,-232 # a7c70 <buf.0>
   11edc:	04d280ef          	jal	ra,3a728 <sprintf>
   11ee0:	000d8793          	mv	a5,s11
   11ee4:	00090713          	mv	a4,s2
   11ee8:	f1818693          	addi	a3,gp,-232 # a7c70 <buf.0>
   11eec:	000d0613          	mv	a2,s10
   11ef0:	000c8593          	mv	a1,s9
   11ef4:	ef8c0513          	addi	a0,s8,-264 # 54ef8 <CSWTCH.18+0x2df0>
   11ef8:	705150ef          	jal	ra,27dfc <t_printf>
   11efc:	01840413          	addi	s0,s0,24
   11f00:	f9341ae3          	bne	s0,s3,11e94 <fnmatch_main+0x60>
   11f04:	bb01a503          	lw	a0,-1104(gp) # a7908 <t_status>
   11f08:	08813083          	ld	ra,136(sp)
   11f0c:	08013403          	ld	s0,128(sp)
   11f10:	07813483          	ld	s1,120(sp)
   11f14:	07013903          	ld	s2,112(sp)
   11f18:	06813983          	ld	s3,104(sp)
   11f1c:	06013a03          	ld	s4,96(sp)
   11f20:	05813a83          	ld	s5,88(sp)
   11f24:	05013b03          	ld	s6,80(sp)
   11f28:	04813b83          	ld	s7,72(sp)
   11f2c:	04013c03          	ld	s8,64(sp)
   11f30:	03813c83          	ld	s9,56(sp)
   11f34:	03013d03          	ld	s10,48(sp)
   11f38:	02813d83          	ld	s11,40(sp)
   11f3c:	0005051b          	sext.w	a0,a0
   11f40:	09010113          	addi	sp,sp,144
   11f44:	00008067          	ret
   11f48:	0007a583          	lw	a1,0(a5)
   11f4c:	04058663          	beqz	a1,11f98 <fnmatch_main+0x164>
   11f50:	0095f533          	and	a0,a1,s1
   11f54:	04a59263          	bne	a1,a0,11f98 <fnmatch_main+0x164>
   11f58:	00e80533          	add	a0,a6,a4
   11f5c:	03888593          	addi	a1,a7,56
   11f60:	00f13c23          	sd	a5,24(sp)
   11f64:	00e13823          	sd	a4,16(sp)
   11f68:	01013423          	sd	a6,8(sp)
   11f6c:	7bc280ef          	jal	ra,3a728 <sprintf>
   11f70:	01813783          	ld	a5,24(sp)
   11f74:	01013703          	ld	a4,16(sp)
   11f78:	00813803          	ld	a6,8(sp)
   11f7c:	0007a683          	lw	a3,0(a5)
   11f80:	00a7073b          	addw	a4,a4,a0
   11f84:	000b8613          	mv	a2,s7
   11f88:	fff6c693          	not	a3,a3
   11f8c:	00d4f4b3          	and	s1,s1,a3
   11f90:	0004849b          	sext.w	s1,s1
   11f94:	000528b7          	lui	a7,0x52
   11f98:	01078793          	addi	a5,a5,16
   11f9c:	0087b683          	ld	a3,8(a5)
   11fa0:	fa0694e3          	bnez	a3,11f48 <fnmatch_main+0x114>
   11fa4:	f2048ee3          	beqz	s1,11ee0 <fnmatch_main+0xac>
   11fa8:	000555b7          	lui	a1,0x55
   11fac:	00048693          	mv	a3,s1
   11fb0:	ee858593          	addi	a1,a1,-280 # 54ee8 <CSWTCH.18+0x2de0>
   11fb4:	f1818513          	addi	a0,gp,-232 # a7c70 <buf.0>
   11fb8:	770280ef          	jal	ra,3a728 <sprintf>
   11fbc:	f25ff06f          	j	11ee0 <fnmatch_main+0xac>
   11fc0:	00000713          	li	a4,0
   11fc4:	000b0613          	mv	a2,s6
   11fc8:	000a0793          	mv	a5,s4
   11fcc:	f1818813          	addi	a6,gp,-232 # a7c70 <buf.0>
   11fd0:	000528b7          	lui	a7,0x52
   11fd4:	fc9ff06f          	j	11f9c <fnmatch_main+0x168>

0000000000011fd8 <fscanf_main>:
   11fd8:	ee010113          	addi	sp,sp,-288
   11fdc:	10813823          	sd	s0,272(sp)
   11fe0:	10113c23          	sd	ra,280(sp)
   11fe4:	10913423          	sd	s1,264(sp)
   11fe8:	11213023          	sd	s2,256(sp)
   11fec:	4a41a0ef          	jal	ra,2c490 <__errno_location>
   11ff0:	00050413          	mv	s0,a0
   11ff4:	00052023          	sw	zero,0(a0)
   11ff8:	02810513          	addi	a0,sp,40
   11ffc:	66d330ef          	jal	ra,45e68 <pipe>
   12000:	02050863          	beqz	a0,12030 <fscanf_main+0x58>
   12004:	00a13423          	sd	a0,8(sp)
   12008:	00042503          	lw	a0,0(s0)
   1200c:	4dc1a0ef          	jal	ra,2c4e8 <strerror>
   12010:	00813603          	ld	a2,8(sp)
   12014:	00050713          	mv	a4,a0
   12018:	000555b7          	lui	a1,0x55
   1201c:	00055537          	lui	a0,0x55
   12020:	00000693          	li	a3,0
   12024:	24058593          	addi	a1,a1,576 # 55240 <CSWTCH.18+0x3138>
   12028:	24850513          	addi	a0,a0,584 # 55248 <CSWTCH.18+0x3140>
   1202c:	5d1150ef          	jal	ra,27dfc <t_printf>
   12030:	02812503          	lw	a0,40(sp)
   12034:	000555b7          	lui	a1,0x55
   12038:	00042023          	sw	zero,0(s0)
   1203c:	ce858593          	addi	a1,a1,-792 # 54ce8 <CSWTCH.18+0x2be0>
   12040:	075260ef          	jal	ra,388b4 <__fdopen>
   12044:	00050493          	mv	s1,a0
   12048:	300516e3          	bnez	a0,12b54 <fscanf_main+0xb7c>
   1204c:	00042503          	lw	a0,0(s0)
   12050:	4981a0ef          	jal	ra,2c4e8 <strerror>
   12054:	00050713          	mv	a4,a0
   12058:	000555b7          	lui	a1,0x55
   1205c:	00055537          	lui	a0,0x55
   12060:	00000693          	li	a3,0
   12064:	00100613          	li	a2,1
   12068:	29858593          	addi	a1,a1,664 # 55298 <CSWTCH.18+0x3190>
   1206c:	2b850513          	addi	a0,a0,696 # 552b8 <CSWTCH.18+0x31b0>
   12070:	58d150ef          	jal	ra,27dfc <t_printf>
   12074:	02812503          	lw	a0,40(sp)
   12078:	4d1330ef          	jal	ra,45d48 <close>
   1207c:	02c12503          	lw	a0,44(sp)
   12080:	4c9330ef          	jal	ra,45d48 <close>
   12084:	00100513          	li	a0,1
   12088:	11813083          	ld	ra,280(sp)
   1208c:	11013403          	ld	s0,272(sp)
   12090:	10813483          	ld	s1,264(sp)
   12094:	10013903          	ld	s2,256(sp)
   12098:	12010113          	addi	sp,sp,288
   1209c:	00008067          	ret
   120a0:	000565b7          	lui	a1,0x56
   120a4:	fff00793          	li	a5,-1
   120a8:	01810613          	addi	a2,sp,24
   120ac:	00042023          	sw	zero,0(s0)
   120b0:	01c10693          	addi	a3,sp,28
   120b4:	2b858593          	addi	a1,a1,696 # 562b8 <CSWTCH.18+0x41b0>
   120b8:	00f12e23          	sw	a5,28(sp)
   120bc:	00f12c23          	sw	a5,24(sp)
   120c0:	2c5270ef          	jal	ra,39b84 <fscanf>
   120c4:	00050613          	mv	a2,a0
   120c8:	02050863          	beqz	a0,120f8 <fscanf_main+0x120>
   120cc:	00042503          	lw	a0,0(s0)
   120d0:	00c13423          	sd	a2,8(sp)
   120d4:	4141a0ef          	jal	ra,2c4e8 <strerror>
   120d8:	00813603          	ld	a2,8(sp)
   120dc:	00050713          	mv	a4,a0
   120e0:	000565b7          	lui	a1,0x56
   120e4:	00056537          	lui	a0,0x56
   120e8:	00000693          	li	a3,0
   120ec:	18058593          	addi	a1,a1,384 # 56180 <CSWTCH.18+0x4078>
   120f0:	1a050513          	addi	a0,a0,416 # 561a0 <CSWTCH.18+0x4098>
   120f4:	509150ef          	jal	ra,27dfc <t_printf>
   120f8:	01812603          	lw	a2,24(sp)
   120fc:	00042023          	sw	zero,0(s0)
   12100:	fff00793          	li	a5,-1
   12104:	00c13423          	sd	a2,8(sp)
   12108:	02f60663          	beq	a2,a5,12134 <fscanf_main+0x15c>
   1210c:	00000513          	li	a0,0
   12110:	3d81a0ef          	jal	ra,2c4e8 <strerror>
   12114:	00813603          	ld	a2,8(sp)
   12118:	00050713          	mv	a4,a0
   1211c:	000a05b7          	lui	a1,0xa0
   12120:	00056537          	lui	a0,0x56
   12124:	fff00693          	li	a3,-1
   12128:	a8058593          	addi	a1,a1,-1408 # 9fa80 <messages+0x1d0>
   1212c:	1d850513          	addi	a0,a0,472 # 561d8 <CSWTCH.18+0x40d0>
   12130:	4cd150ef          	jal	ra,27dfc <t_printf>
   12134:	01c12603          	lw	a2,28(sp)
   12138:	00042023          	sw	zero,0(s0)
   1213c:	fff00793          	li	a5,-1
   12140:	00c13423          	sd	a2,8(sp)
   12144:	02f60663          	beq	a2,a5,12170 <fscanf_main+0x198>
   12148:	00000513          	li	a0,0
   1214c:	39c1a0ef          	jal	ra,2c4e8 <strerror>
   12150:	00813603          	ld	a2,8(sp)
   12154:	00050713          	mv	a4,a0
   12158:	000555b7          	lui	a1,0x55
   1215c:	00056537          	lui	a0,0x56
   12160:	fff00693          	li	a3,-1
   12164:	74858593          	addi	a1,a1,1864 # 55748 <CSWTCH.18+0x3640>
   12168:	21050513          	addi	a0,a0,528 # 56210 <CSWTCH.18+0x4108>
   1216c:	491150ef          	jal	ra,27dfc <t_printf>
   12170:	00042023          	sw	zero,0(s0)
   12174:	00048513          	mv	a0,s1
   12178:	45d270ef          	jal	ra,39dd4 <ftell>
   1217c:	0005061b          	sext.w	a2,a0
   12180:	00200793          	li	a5,2
   12184:	00c13423          	sd	a2,8(sp)
   12188:	02f60663          	beq	a2,a5,121b4 <fscanf_main+0x1dc>
   1218c:	00042503          	lw	a0,0(s0)
   12190:	3581a0ef          	jal	ra,2c4e8 <strerror>
   12194:	00813603          	ld	a2,8(sp)
   12198:	00050713          	mv	a4,a0
   1219c:	000555b7          	lui	a1,0x55
   121a0:	00056537          	lui	a0,0x56
   121a4:	00200693          	li	a3,2
   121a8:	78858593          	addi	a1,a1,1928 # 55788 <CSWTCH.18+0x3680>
   121ac:	24850513          	addi	a0,a0,584 # 56248 <CSWTCH.18+0x4140>
   121b0:	44d150ef          	jal	ra,27dfc <t_printf>
   121b4:	00042023          	sw	zero,0(s0)
   121b8:	00048513          	mv	a0,s1
   121bc:	399260ef          	jal	ra,38d54 <feof>
   121c0:	02050863          	beqz	a0,121f0 <fscanf_main+0x218>
   121c4:	00a13423          	sd	a0,8(sp)
   121c8:	00042503          	lw	a0,0(s0)
   121cc:	31c1a0ef          	jal	ra,2c4e8 <strerror>
   121d0:	00813603          	ld	a2,8(sp)
   121d4:	00050713          	mv	a4,a0
   121d8:	000565b7          	lui	a1,0x56
   121dc:	00056537          	lui	a0,0x56
   121e0:	00000693          	li	a3,0
   121e4:	a4858593          	addi	a1,a1,-1464 # 55a48 <CSWTCH.18+0x3940>
   121e8:	28050513          	addi	a0,a0,640 # 56280 <CSWTCH.18+0x4178>
   121ec:	411150ef          	jal	ra,27dfc <t_printf>
   121f0:	00048513          	mv	a0,s1
   121f4:	295260ef          	jal	ra,38c88 <fclose>
   121f8:	50d0006f          	j	12f04 <fscanf_main+0xf2c>
   121fc:	fff00793          	li	a5,-1
   12200:	00f12e23          	sw	a5,28(sp)
   12204:	00f12c23          	sw	a5,24(sp)
   12208:	8181b787          	fld	fa5,-2024(gp) # a7570 <__SDATA_BEGIN__+0x18>
   1220c:	000565b7          	lui	a1,0x56
   12210:	02010613          	addi	a2,sp,32
   12214:	00042023          	sw	zero,0(s0)
   12218:	01c10713          	addi	a4,sp,28
   1221c:	01810693          	addi	a3,sp,24
   12220:	2c058593          	addi	a1,a1,704 # 562c0 <CSWTCH.18+0x41b8>
   12224:	02f13027          	fsd	fa5,32(sp)
   12228:	15d270ef          	jal	ra,39b84 <fscanf>
   1222c:	00200793          	li	a5,2
   12230:	00050613          	mv	a2,a0
   12234:	02f50863          	beq	a0,a5,12264 <fscanf_main+0x28c>
   12238:	00042503          	lw	a0,0(s0)
   1223c:	00c13423          	sd	a2,8(sp)
   12240:	2a81a0ef          	jal	ra,2c4e8 <strerror>
   12244:	00813603          	ld	a2,8(sp)
   12248:	00050713          	mv	a4,a0
   1224c:	000565b7          	lui	a1,0x56
   12250:	00056537          	lui	a0,0x56
   12254:	00200693          	li	a3,2
   12258:	fa058593          	addi	a1,a1,-96 # 55fa0 <CSWTCH.18+0x3e98>
   1225c:	fc850513          	addi	a0,a0,-56 # 55fc8 <CSWTCH.18+0x3ec0>
   12260:	39d150ef          	jal	ra,27dfc <t_printf>
   12264:	02013787          	fld	fa5,32(sp)
   12268:	8201b707          	fld	fa4,-2016(gp) # a7578 <__SDATA_BEGIN__+0x20>
   1226c:	00042023          	sw	zero,0(s0)
   12270:	a2e7a7d3          	feq.d	a5,fa5,fa4
   12274:	02079c63          	bnez	a5,122ac <fscanf_main+0x2d4>
   12278:	00000513          	li	a0,0
   1227c:	00f13427          	fsd	fa5,8(sp)
   12280:	2681a0ef          	jal	ra,2c4e8 <strerror>
   12284:	8201b707          	fld	fa4,-2016(gp) # a7578 <__SDATA_BEGIN__+0x20>
   12288:	00813787          	fld	fa5,8(sp)
   1228c:	00050713          	mv	a4,a0
   12290:	e20706d3          	fmv.x.d	a3,fa4
   12294:	e2078653          	fmv.x.d	a2,fa5
   12298:	000565b7          	lui	a1,0x56
   1229c:	00056537          	lui	a0,0x56
   122a0:	b9058593          	addi	a1,a1,-1136 # 55b90 <CSWTCH.18+0x3a88>
   122a4:	00050513          	mv	a0,a0
   122a8:	355150ef          	jal	ra,27dfc <t_printf>
   122ac:	01812603          	lw	a2,24(sp)
   122b0:	00042023          	sw	zero,0(s0)
   122b4:	00600793          	li	a5,6
   122b8:	00c13423          	sd	a2,8(sp)
   122bc:	02f60663          	beq	a2,a5,122e8 <fscanf_main+0x310>
   122c0:	00000513          	li	a0,0
   122c4:	2241a0ef          	jal	ra,2c4e8 <strerror>
   122c8:	00813603          	ld	a2,8(sp)
   122cc:	00050713          	mv	a4,a0
   122d0:	000a05b7          	lui	a1,0xa0
   122d4:	00056537          	lui	a0,0x56
   122d8:	00600693          	li	a3,6
   122dc:	a8058593          	addi	a1,a1,-1408 # 9fa80 <messages+0x1d0>
   122e0:	03850513          	addi	a0,a0,56 # 56038 <CSWTCH.18+0x3f30>
   122e4:	319150ef          	jal	ra,27dfc <t_printf>
   122e8:	01c12603          	lw	a2,28(sp)
   122ec:	00042023          	sw	zero,0(s0)
   122f0:	00a00793          	li	a5,10
   122f4:	00c13423          	sd	a2,8(sp)
   122f8:	02f60663          	beq	a2,a5,12324 <fscanf_main+0x34c>
   122fc:	00000513          	li	a0,0
   12300:	1e81a0ef          	jal	ra,2c4e8 <strerror>
   12304:	00813603          	ld	a2,8(sp)
   12308:	00050713          	mv	a4,a0
   1230c:	000555b7          	lui	a1,0x55
   12310:	00056537          	lui	a0,0x56
   12314:	00a00693          	li	a3,10
   12318:	74858593          	addi	a1,a1,1864 # 55748 <CSWTCH.18+0x3640>
   1231c:	07050513          	addi	a0,a0,112 # 56070 <CSWTCH.18+0x3f68>
   12320:	2dd150ef          	jal	ra,27dfc <t_printf>
   12324:	00042023          	sw	zero,0(s0)
   12328:	00048513          	mv	a0,s1
   1232c:	2a9270ef          	jal	ra,39dd4 <ftell>
   12330:	0005061b          	sext.w	a2,a0
   12334:	00d00793          	li	a5,13
   12338:	00c13423          	sd	a2,8(sp)
   1233c:	02f60663          	beq	a2,a5,12368 <fscanf_main+0x390>
   12340:	00042503          	lw	a0,0(s0)
   12344:	1a41a0ef          	jal	ra,2c4e8 <strerror>
   12348:	00813603          	ld	a2,8(sp)
   1234c:	00050713          	mv	a4,a0
   12350:	000555b7          	lui	a1,0x55
   12354:	00056537          	lui	a0,0x56
   12358:	00d00693          	li	a3,13
   1235c:	78858593          	addi	a1,a1,1928 # 55788 <CSWTCH.18+0x3680>
   12360:	0a850513          	addi	a0,a0,168 # 560a8 <CSWTCH.18+0x3fa0>
   12364:	299150ef          	jal	ra,27dfc <t_printf>
   12368:	00042023          	sw	zero,0(s0)
   1236c:	00048513          	mv	a0,s1
   12370:	1e5260ef          	jal	ra,38d54 <feof>
   12374:	02051663          	bnez	a0,123a0 <fscanf_main+0x3c8>
   12378:	00042503          	lw	a0,0(s0)
   1237c:	16c1a0ef          	jal	ra,2c4e8 <strerror>
   12380:	00050713          	mv	a4,a0
   12384:	000555b7          	lui	a1,0x55
   12388:	00056537          	lui	a0,0x56
   1238c:	00100693          	li	a3,1
   12390:	00000613          	li	a2,0
   12394:	7d058593          	addi	a1,a1,2000 # 557d0 <CSWTCH.18+0x36c8>
   12398:	0e050513          	addi	a0,a0,224 # 560e0 <CSWTCH.18+0x3fd8>
   1239c:	261150ef          	jal	ra,27dfc <t_printf>
   123a0:	00048513          	mv	a0,s1
   123a4:	0e5260ef          	jal	ra,38c88 <fclose>
   123a8:	3190006f          	j	12ec0 <fscanf_main+0xee8>
   123ac:	8181b787          	fld	fa5,-2024(gp) # a7570 <__SDATA_BEGIN__+0x18>
   123b0:	000565b7          	lui	a1,0x56
   123b4:	fff00793          	li	a5,-1
   123b8:	02010613          	addi	a2,sp,32
   123bc:	00042023          	sw	zero,0(s0)
   123c0:	01c10713          	addi	a4,sp,28
   123c4:	01810693          	addi	a3,sp,24
   123c8:	2d058593          	addi	a1,a1,720 # 562d0 <CSWTCH.18+0x41c8>
   123cc:	00f12e23          	sw	a5,28(sp)
   123d0:	00f12c23          	sw	a5,24(sp)
   123d4:	02f13027          	fsd	fa5,32(sp)
   123d8:	7ac270ef          	jal	ra,39b84 <fscanf>
   123dc:	00050613          	mv	a2,a0
   123e0:	02050863          	beqz	a0,12410 <fscanf_main+0x438>
   123e4:	00042503          	lw	a0,0(s0)
   123e8:	00c13423          	sd	a2,8(sp)
   123ec:	0fc1a0ef          	jal	ra,2c4e8 <strerror>
   123f0:	00813603          	ld	a2,8(sp)
   123f4:	00050713          	mv	a4,a0
   123f8:	000565b7          	lui	a1,0x56
   123fc:	00056537          	lui	a0,0x56
   12400:	00000693          	li	a3,0
   12404:	b3058593          	addi	a1,a1,-1232 # 55b30 <CSWTCH.18+0x3a28>
   12408:	b5850513          	addi	a0,a0,-1192 # 55b58 <CSWTCH.18+0x3a50>
   1240c:	1f1150ef          	jal	ra,27dfc <t_printf>
   12410:	02013787          	fld	fa5,32(sp)
   12414:	8181b707          	fld	fa4,-2024(gp) # a7570 <__SDATA_BEGIN__+0x18>
   12418:	00042023          	sw	zero,0(s0)
   1241c:	a2e7a7d3          	feq.d	a5,fa5,fa4
   12420:	02079c63          	bnez	a5,12458 <fscanf_main+0x480>
   12424:	00000513          	li	a0,0
   12428:	00f13427          	fsd	fa5,8(sp)
   1242c:	0bc1a0ef          	jal	ra,2c4e8 <strerror>
   12430:	8181b707          	fld	fa4,-2024(gp) # a7570 <__SDATA_BEGIN__+0x18>
   12434:	00813787          	fld	fa5,8(sp)
   12438:	00050713          	mv	a4,a0
   1243c:	e20706d3          	fmv.x.d	a3,fa4
   12440:	e2078653          	fmv.x.d	a2,fa5
   12444:	000565b7          	lui	a1,0x56
   12448:	00056537          	lui	a0,0x56
   1244c:	b9058593          	addi	a1,a1,-1136 # 55b90 <CSWTCH.18+0x3a88>
   12450:	b9850513          	addi	a0,a0,-1128 # 55b98 <CSWTCH.18+0x3a90>
   12454:	1a9150ef          	jal	ra,27dfc <t_printf>
   12458:	01812603          	lw	a2,24(sp)
   1245c:	00042023          	sw	zero,0(s0)
   12460:	fff00793          	li	a5,-1
   12464:	00c13423          	sd	a2,8(sp)
   12468:	02f60663          	beq	a2,a5,12494 <fscanf_main+0x4bc>
   1246c:	00000513          	li	a0,0
   12470:	0781a0ef          	jal	ra,2c4e8 <strerror>
   12474:	00813603          	ld	a2,8(sp)
   12478:	00050713          	mv	a4,a0
   1247c:	000a05b7          	lui	a1,0xa0
   12480:	00056537          	lui	a0,0x56
   12484:	fff00693          	li	a3,-1
   12488:	a8058593          	addi	a1,a1,-1408 # 9fa80 <messages+0x1d0>
   1248c:	bd050513          	addi	a0,a0,-1072 # 55bd0 <CSWTCH.18+0x3ac8>
   12490:	16d150ef          	jal	ra,27dfc <t_printf>
   12494:	01c12603          	lw	a2,28(sp)
   12498:	00042023          	sw	zero,0(s0)
   1249c:	fff00793          	li	a5,-1
   124a0:	00c13423          	sd	a2,8(sp)
   124a4:	02f60663          	beq	a2,a5,124d0 <fscanf_main+0x4f8>
   124a8:	00000513          	li	a0,0
   124ac:	03c1a0ef          	jal	ra,2c4e8 <strerror>
   124b0:	00813603          	ld	a2,8(sp)
   124b4:	00050713          	mv	a4,a0
   124b8:	000555b7          	lui	a1,0x55
   124bc:	00056537          	lui	a0,0x56
   124c0:	fff00693          	li	a3,-1
   124c4:	74858593          	addi	a1,a1,1864 # 55748 <CSWTCH.18+0x3640>
   124c8:	c0850513          	addi	a0,a0,-1016 # 55c08 <CSWTCH.18+0x3b00>
   124cc:	131150ef          	jal	ra,27dfc <t_printf>
   124d0:	00042023          	sw	zero,0(s0)
   124d4:	00048513          	mv	a0,s1
   124d8:	0fd270ef          	jal	ra,39dd4 <ftell>
   124dc:	0005061b          	sext.w	a2,a0
   124e0:	00400793          	li	a5,4
   124e4:	00c13423          	sd	a2,8(sp)
   124e8:	02f60663          	beq	a2,a5,12514 <fscanf_main+0x53c>
   124ec:	00042503          	lw	a0,0(s0)
   124f0:	7f9190ef          	jal	ra,2c4e8 <strerror>
   124f4:	00813603          	ld	a2,8(sp)
   124f8:	00050713          	mv	a4,a0
   124fc:	000555b7          	lui	a1,0x55
   12500:	00056537          	lui	a0,0x56
   12504:	00400693          	li	a3,4
   12508:	78858593          	addi	a1,a1,1928 # 55788 <CSWTCH.18+0x3680>
   1250c:	c4050513          	addi	a0,a0,-960 # 55c40 <CSWTCH.18+0x3b38>
   12510:	0ed150ef          	jal	ra,27dfc <t_printf>
   12514:	00042023          	sw	zero,0(s0)
   12518:	00048513          	mv	a0,s1
   1251c:	039260ef          	jal	ra,38d54 <feof>
   12520:	02050863          	beqz	a0,12550 <fscanf_main+0x578>
   12524:	00a13423          	sd	a0,8(sp)
   12528:	00042503          	lw	a0,0(s0)
   1252c:	7bd190ef          	jal	ra,2c4e8 <strerror>
   12530:	00813603          	ld	a2,8(sp)
   12534:	00050713          	mv	a4,a0
   12538:	000565b7          	lui	a1,0x56
   1253c:	00056537          	lui	a0,0x56
   12540:	00000693          	li	a3,0
   12544:	a4858593          	addi	a1,a1,-1464 # 55a48 <CSWTCH.18+0x3940>
   12548:	c7850513          	addi	a0,a0,-904 # 55c78 <CSWTCH.18+0x3b70>
   1254c:	0b1150ef          	jal	ra,27dfc <t_printf>
   12550:	00042023          	sw	zero,0(s0)
   12554:	00048513          	mv	a0,s1
   12558:	2ed260ef          	jal	ra,39044 <fgetc>
   1255c:	02000793          	li	a5,32
   12560:	00a13423          	sd	a0,8(sp)
   12564:	02f50663          	beq	a0,a5,12590 <fscanf_main+0x5b8>
   12568:	00042503          	lw	a0,0(s0)
   1256c:	77d190ef          	jal	ra,2c4e8 <strerror>
   12570:	00813603          	ld	a2,8(sp)
   12574:	00050713          	mv	a4,a0
   12578:	000555b7          	lui	a1,0x55
   1257c:	00056537          	lui	a0,0x56
   12580:	02000693          	li	a3,32
   12584:	49058593          	addi	a1,a1,1168 # 55490 <CSWTCH.18+0x3388>
   12588:	cb050513          	addi	a0,a0,-848 # 55cb0 <CSWTCH.18+0x3ba8>
   1258c:	071150ef          	jal	ra,27dfc <t_printf>
   12590:	00048513          	mv	a0,s1
   12594:	078280ef          	jal	ra,3a60c <rewind>
   12598:	00048513          	mv	a0,s1
   1259c:	00042023          	sw	zero,0(s0)
   125a0:	2a5260ef          	jal	ra,39044 <fgetc>
   125a4:	03000793          	li	a5,48
   125a8:	00a13423          	sd	a0,8(sp)
   125ac:	02f50663          	beq	a0,a5,125d8 <fscanf_main+0x600>
   125b0:	00042503          	lw	a0,0(s0)
   125b4:	735190ef          	jal	ra,2c4e8 <strerror>
   125b8:	00813603          	ld	a2,8(sp)
   125bc:	00050713          	mv	a4,a0
   125c0:	000555b7          	lui	a1,0x55
   125c4:	00056537          	lui	a0,0x56
   125c8:	03000693          	li	a3,48
   125cc:	49058593          	addi	a1,a1,1168 # 55490 <CSWTCH.18+0x3388>
   125d0:	ce850513          	addi	a0,a0,-792 # 55ce8 <CSWTCH.18+0x3be0>
   125d4:	029150ef          	jal	ra,27dfc <t_printf>
   125d8:	00042023          	sw	zero,0(s0)
   125dc:	00048513          	mv	a0,s1
   125e0:	265260ef          	jal	ra,39044 <fgetc>
   125e4:	07800793          	li	a5,120
   125e8:	00a13423          	sd	a0,8(sp)
   125ec:	02f50663          	beq	a0,a5,12618 <fscanf_main+0x640>
   125f0:	00042503          	lw	a0,0(s0)
   125f4:	6f5190ef          	jal	ra,2c4e8 <strerror>
   125f8:	00813603          	ld	a2,8(sp)
   125fc:	00050713          	mv	a4,a0
   12600:	000555b7          	lui	a1,0x55
   12604:	00056537          	lui	a0,0x56
   12608:	07800693          	li	a3,120
   1260c:	49058593          	addi	a1,a1,1168 # 55490 <CSWTCH.18+0x3388>
   12610:	d2050513          	addi	a0,a0,-736 # 55d20 <CSWTCH.18+0x3c18>
   12614:	7e8150ef          	jal	ra,27dfc <t_printf>
   12618:	000565b7          	lui	a1,0x56
   1261c:	01c10793          	addi	a5,sp,28
   12620:	00042023          	sw	zero,0(s0)
   12624:	03010713          	addi	a4,sp,48
   12628:	01810693          	addi	a3,sp,24
   1262c:	02010613          	addi	a2,sp,32
   12630:	d5858593          	addi	a1,a1,-680 # 55d58 <CSWTCH.18+0x3c50>
   12634:	00048513          	mv	a0,s1
   12638:	54c270ef          	jal	ra,39b84 <fscanf>
   1263c:	00300793          	li	a5,3
   12640:	00a13423          	sd	a0,8(sp)
   12644:	02f50663          	beq	a0,a5,12670 <fscanf_main+0x698>
   12648:	00042503          	lw	a0,0(s0)
   1264c:	69d190ef          	jal	ra,2c4e8 <strerror>
   12650:	00813603          	ld	a2,8(sp)
   12654:	00050713          	mv	a4,a0
   12658:	000565b7          	lui	a1,0x56
   1265c:	00056537          	lui	a0,0x56
   12660:	00300693          	li	a3,3
   12664:	d6858593          	addi	a1,a1,-664 # 55d68 <CSWTCH.18+0x3c60>
   12668:	d9050513          	addi	a0,a0,-624 # 55d90 <CSWTCH.18+0x3c88>
   1266c:	790150ef          	jal	ra,27dfc <t_printf>
   12670:	02013787          	fld	fa5,32(sp)
   12674:	8201b707          	fld	fa4,-2016(gp) # a7578 <__SDATA_BEGIN__+0x20>
   12678:	00042023          	sw	zero,0(s0)
   1267c:	a2e7a7d3          	feq.d	a5,fa5,fa4
   12680:	02079c63          	bnez	a5,126b8 <fscanf_main+0x6e0>
   12684:	00000513          	li	a0,0
   12688:	00f13427          	fsd	fa5,8(sp)
   1268c:	65d190ef          	jal	ra,2c4e8 <strerror>
   12690:	8201b707          	fld	fa4,-2016(gp) # a7578 <__SDATA_BEGIN__+0x20>
   12694:	00813787          	fld	fa5,8(sp)
   12698:	00050713          	mv	a4,a0
   1269c:	e20706d3          	fmv.x.d	a3,fa4
   126a0:	e2078653          	fmv.x.d	a2,fa5
   126a4:	000565b7          	lui	a1,0x56
   126a8:	00056537          	lui	a0,0x56
   126ac:	b9058593          	addi	a1,a1,-1136 # 55b90 <CSWTCH.18+0x3a88>
   126b0:	dc850513          	addi	a0,a0,-568 # 55dc8 <CSWTCH.18+0x3cc0>
   126b4:	748150ef          	jal	ra,27dfc <t_printf>
   126b8:	01812603          	lw	a2,24(sp)
   126bc:	00042023          	sw	zero,0(s0)
   126c0:	00100793          	li	a5,1
   126c4:	00c13423          	sd	a2,8(sp)
   126c8:	02f60663          	beq	a2,a5,126f4 <fscanf_main+0x71c>
   126cc:	00000513          	li	a0,0
   126d0:	619190ef          	jal	ra,2c4e8 <strerror>
   126d4:	00813603          	ld	a2,8(sp)
   126d8:	00050713          	mv	a4,a0
   126dc:	000a05b7          	lui	a1,0xa0
   126e0:	00056537          	lui	a0,0x56
   126e4:	00100693          	li	a3,1
   126e8:	a8058593          	addi	a1,a1,-1408 # 9fa80 <messages+0x1d0>
   126ec:	e0050513          	addi	a0,a0,-512 # 55e00 <CSWTCH.18+0x3cf8>
   126f0:	70c150ef          	jal	ra,27dfc <t_printf>
   126f4:	03014603          	lbu	a2,48(sp)
   126f8:	00042023          	sw	zero,0(s0)
   126fc:	07000793          	li	a5,112
   12700:	00c13423          	sd	a2,8(sp)
   12704:	02f60663          	beq	a2,a5,12730 <fscanf_main+0x758>
   12708:	00000513          	li	a0,0
   1270c:	5dd190ef          	jal	ra,2c4e8 <strerror>
   12710:	00813603          	ld	a2,8(sp)
   12714:	00050713          	mv	a4,a0
   12718:	000565b7          	lui	a1,0x56
   1271c:	00056537          	lui	a0,0x56
   12720:	07000693          	li	a3,112
   12724:	e3858593          	addi	a1,a1,-456 # 55e38 <CSWTCH.18+0x3d30>
   12728:	e4050513          	addi	a0,a0,-448 # 55e40 <CSWTCH.18+0x3d38>
   1272c:	6d0150ef          	jal	ra,27dfc <t_printf>
   12730:	01c12603          	lw	a2,28(sp)
   12734:	00042023          	sw	zero,0(s0)
   12738:	00c00793          	li	a5,12
   1273c:	00c13423          	sd	a2,8(sp)
   12740:	02f60663          	beq	a2,a5,1276c <fscanf_main+0x794>
   12744:	00000513          	li	a0,0
   12748:	5a1190ef          	jal	ra,2c4e8 <strerror>
   1274c:	00813603          	ld	a2,8(sp)
   12750:	00050713          	mv	a4,a0
   12754:	000555b7          	lui	a1,0x55
   12758:	00056537          	lui	a0,0x56
   1275c:	00c00693          	li	a3,12
   12760:	74858593          	addi	a1,a1,1864 # 55748 <CSWTCH.18+0x3640>
   12764:	e7850513          	addi	a0,a0,-392 # 55e78 <CSWTCH.18+0x3d70>
   12768:	694150ef          	jal	ra,27dfc <t_printf>
   1276c:	00042023          	sw	zero,0(s0)
   12770:	00048513          	mv	a0,s1
   12774:	660270ef          	jal	ra,39dd4 <ftell>
   12778:	0005061b          	sext.w	a2,a0
   1277c:	00700793          	li	a5,7
   12780:	00c13423          	sd	a2,8(sp)
   12784:	02f60663          	beq	a2,a5,127b0 <fscanf_main+0x7d8>
   12788:	00042503          	lw	a0,0(s0)
   1278c:	55d190ef          	jal	ra,2c4e8 <strerror>
   12790:	00813603          	ld	a2,8(sp)
   12794:	00050713          	mv	a4,a0
   12798:	000555b7          	lui	a1,0x55
   1279c:	00056537          	lui	a0,0x56
   127a0:	00700693          	li	a3,7
   127a4:	78858593          	addi	a1,a1,1928 # 55788 <CSWTCH.18+0x3680>
   127a8:	eb050513          	addi	a0,a0,-336 # 55eb0 <CSWTCH.18+0x3da8>
   127ac:	650150ef          	jal	ra,27dfc <t_printf>
   127b0:	00042023          	sw	zero,0(s0)
   127b4:	00048513          	mv	a0,s1
   127b8:	59c260ef          	jal	ra,38d54 <feof>
   127bc:	02051663          	bnez	a0,127e8 <fscanf_main+0x810>
   127c0:	00042503          	lw	a0,0(s0)
   127c4:	525190ef          	jal	ra,2c4e8 <strerror>
   127c8:	00050713          	mv	a4,a0
   127cc:	000555b7          	lui	a1,0x55
   127d0:	00056537          	lui	a0,0x56
   127d4:	00100693          	li	a3,1
   127d8:	00000613          	li	a2,0
   127dc:	7d058593          	addi	a1,a1,2000 # 557d0 <CSWTCH.18+0x36c8>
   127e0:	ee850513          	addi	a0,a0,-280 # 55ee8 <CSWTCH.18+0x3de0>
   127e4:	618150ef          	jal	ra,27dfc <t_printf>
   127e8:	00048513          	mv	a0,s1
   127ec:	49c260ef          	jal	ra,38c88 <fclose>
   127f0:	6900006f          	j	12e80 <fscanf_main+0xea8>
   127f4:	fff00793          	li	a5,-1
   127f8:	000565b7          	lui	a1,0x56
   127fc:	00f12e23          	sw	a5,28(sp)
   12800:	00f12c23          	sw	a5,24(sp)
   12804:	03010613          	addi	a2,sp,48
   12808:	01c10793          	addi	a5,sp,28
   1280c:	00042023          	sw	zero,0(s0)
   12810:	09810713          	addi	a4,sp,152
   12814:	01810693          	addi	a3,sp,24
   12818:	2e058593          	addi	a1,a1,736 # 562e0 <CSWTCH.18+0x41d8>
   1281c:	368270ef          	jal	ra,39b84 <fscanf>
   12820:	00200793          	li	a5,2
   12824:	00050613          	mv	a2,a0
   12828:	02f50863          	beq	a0,a5,12858 <fscanf_main+0x880>
   1282c:	00042503          	lw	a0,0(s0)
   12830:	00c13423          	sd	a2,8(sp)
   12834:	4b5190ef          	jal	ra,2c4e8 <strerror>
   12838:	00813603          	ld	a2,8(sp)
   1283c:	00050713          	mv	a4,a0
   12840:	000565b7          	lui	a1,0x56
   12844:	00056537          	lui	a0,0x56
   12848:	00200693          	li	a3,2
   1284c:	89858593          	addi	a1,a1,-1896 # 55898 <CSWTCH.18+0x3790>
   12850:	8c850513          	addi	a0,a0,-1848 # 558c8 <CSWTCH.18+0x37c0>
   12854:	5a8150ef          	jal	ra,27dfc <t_printf>
   12858:	00056937          	lui	s2,0x56
   1285c:	90090593          	addi	a1,s2,-1792 # 55900 <CSWTCH.18+0x37f8>
   12860:	03010513          	addi	a0,sp,48
   12864:	65d2c0ef          	jal	ra,3f6c0 <strcmp>
   12868:	02050063          	beqz	a0,12888 <fscanf_main+0x8b0>
   1286c:	000566b7          	lui	a3,0x56
   12870:	00056537          	lui	a0,0x56
   12874:	90868693          	addi	a3,a3,-1784 # 55908 <CSWTCH.18+0x3800>
   12878:	90090613          	addi	a2,s2,-1792
   1287c:	03010593          	addi	a1,sp,48
   12880:	92050513          	addi	a0,a0,-1760 # 55920 <CSWTCH.18+0x3818>
   12884:	578150ef          	jal	ra,27dfc <t_printf>
   12888:	00056937          	lui	s2,0x56
   1288c:	95090593          	addi	a1,s2,-1712 # 55950 <CSWTCH.18+0x3848>
   12890:	09810513          	addi	a0,sp,152
   12894:	62d2c0ef          	jal	ra,3f6c0 <strcmp>
   12898:	02050063          	beqz	a0,128b8 <fscanf_main+0x8e0>
   1289c:	000566b7          	lui	a3,0x56
   128a0:	00056537          	lui	a0,0x56
   128a4:	95868693          	addi	a3,a3,-1704 # 55958 <CSWTCH.18+0x3850>
   128a8:	95090613          	addi	a2,s2,-1712
   128ac:	09810593          	addi	a1,sp,152
   128b0:	97050513          	addi	a0,a0,-1680 # 55970 <CSWTCH.18+0x3868>
   128b4:	548150ef          	jal	ra,27dfc <t_printf>
   128b8:	01812603          	lw	a2,24(sp)
   128bc:	00042023          	sw	zero,0(s0)
   128c0:	00700793          	li	a5,7
   128c4:	00c13423          	sd	a2,8(sp)
   128c8:	02f60663          	beq	a2,a5,128f4 <fscanf_main+0x91c>
   128cc:	00000513          	li	a0,0
   128d0:	419190ef          	jal	ra,2c4e8 <strerror>
   128d4:	00813603          	ld	a2,8(sp)
   128d8:	00050713          	mv	a4,a0
   128dc:	000a05b7          	lui	a1,0xa0
   128e0:	00056537          	lui	a0,0x56
   128e4:	00700693          	li	a3,7
   128e8:	a8058593          	addi	a1,a1,-1408 # 9fa80 <messages+0x1d0>
   128ec:	9a050513          	addi	a0,a0,-1632 # 559a0 <CSWTCH.18+0x3898>
   128f0:	50c150ef          	jal	ra,27dfc <t_printf>
   128f4:	01c12603          	lw	a2,28(sp)
   128f8:	00042023          	sw	zero,0(s0)
   128fc:	00c00793          	li	a5,12
   12900:	00c13423          	sd	a2,8(sp)
   12904:	02f60663          	beq	a2,a5,12930 <fscanf_main+0x958>
   12908:	00000513          	li	a0,0
   1290c:	3dd190ef          	jal	ra,2c4e8 <strerror>
   12910:	00813603          	ld	a2,8(sp)
   12914:	00050713          	mv	a4,a0
   12918:	000555b7          	lui	a1,0x55
   1291c:	00056537          	lui	a0,0x56
   12920:	00c00693          	li	a3,12
   12924:	74858593          	addi	a1,a1,1864 # 55748 <CSWTCH.18+0x3640>
   12928:	9d850513          	addi	a0,a0,-1576 # 559d8 <CSWTCH.18+0x38d0>
   1292c:	4d0150ef          	jal	ra,27dfc <t_printf>
   12930:	00042023          	sw	zero,0(s0)
   12934:	00048513          	mv	a0,s1
   12938:	49c270ef          	jal	ra,39dd4 <ftell>
   1293c:	0005061b          	sext.w	a2,a0
   12940:	00c00793          	li	a5,12
   12944:	00c13423          	sd	a2,8(sp)
   12948:	02f60663          	beq	a2,a5,12974 <fscanf_main+0x99c>
   1294c:	00042503          	lw	a0,0(s0)
   12950:	399190ef          	jal	ra,2c4e8 <strerror>
   12954:	00813603          	ld	a2,8(sp)
   12958:	00050713          	mv	a4,a0
   1295c:	000555b7          	lui	a1,0x55
   12960:	00056537          	lui	a0,0x56
   12964:	00c00693          	li	a3,12
   12968:	78858593          	addi	a1,a1,1928 # 55788 <CSWTCH.18+0x3680>
   1296c:	a1050513          	addi	a0,a0,-1520 # 55a10 <CSWTCH.18+0x3908>
   12970:	48c150ef          	jal	ra,27dfc <t_printf>
   12974:	00042023          	sw	zero,0(s0)
   12978:	00048513          	mv	a0,s1
   1297c:	3d8260ef          	jal	ra,38d54 <feof>
   12980:	02050863          	beqz	a0,129b0 <fscanf_main+0x9d8>
   12984:	00a13423          	sd	a0,8(sp)
   12988:	00042503          	lw	a0,0(s0)
   1298c:	35d190ef          	jal	ra,2c4e8 <strerror>
   12990:	00813603          	ld	a2,8(sp)
   12994:	00050713          	mv	a4,a0
   12998:	000565b7          	lui	a1,0x56
   1299c:	00056537          	lui	a0,0x56
   129a0:	00000693          	li	a3,0
   129a4:	a4858593          	addi	a1,a1,-1464 # 55a48 <CSWTCH.18+0x3940>
   129a8:	a5050513          	addi	a0,a0,-1456 # 55a50 <CSWTCH.18+0x3948>
   129ac:	450150ef          	jal	ra,27dfc <t_printf>
   129b0:	00042023          	sw	zero,0(s0)
   129b4:	00048513          	mv	a0,s1
   129b8:	68c260ef          	jal	ra,39044 <fgetc>
   129bc:	07800793          	li	a5,120
   129c0:	00a13423          	sd	a0,8(sp)
   129c4:	02f50663          	beq	a0,a5,129f0 <fscanf_main+0xa18>
   129c8:	00042503          	lw	a0,0(s0)
   129cc:	31d190ef          	jal	ra,2c4e8 <strerror>
   129d0:	00813603          	ld	a2,8(sp)
   129d4:	00050713          	mv	a4,a0
   129d8:	000555b7          	lui	a1,0x55
   129dc:	00056537          	lui	a0,0x56
   129e0:	07800693          	li	a3,120
   129e4:	49058593          	addi	a1,a1,1168 # 55490 <CSWTCH.18+0x3388>
   129e8:	a8850513          	addi	a0,a0,-1400 # 55a88 <CSWTCH.18+0x3980>
   129ec:	410150ef          	jal	ra,27dfc <t_printf>
   129f0:	00048513          	mv	a0,s1
   129f4:	294260ef          	jal	ra,38c88 <fclose>
   129f8:	4480006f          	j	12e40 <fscanf_main+0xe68>
   129fc:	000565b7          	lui	a1,0x56
   12a00:	fff00793          	li	a5,-1
   12a04:	01810613          	addi	a2,sp,24
   12a08:	00042023          	sw	zero,0(s0)
   12a0c:	01c10693          	addi	a3,sp,28
   12a10:	2f858593          	addi	a1,a1,760 # 562f8 <CSWTCH.18+0x41f0>
   12a14:	00f12e23          	sw	a5,28(sp)
   12a18:	00f12c23          	sw	a5,24(sp)
   12a1c:	168270ef          	jal	ra,39b84 <fscanf>
   12a20:	00050613          	mv	a2,a0
   12a24:	02050863          	beqz	a0,12a54 <fscanf_main+0xa7c>
   12a28:	00042503          	lw	a0,0(s0)
   12a2c:	00c13423          	sd	a2,8(sp)
   12a30:	2b9190ef          	jal	ra,2c4e8 <strerror>
   12a34:	00813603          	ld	a2,8(sp)
   12a38:	00050713          	mv	a4,a0
   12a3c:	000555b7          	lui	a1,0x55
   12a40:	00055537          	lui	a0,0x55
   12a44:	00000693          	li	a3,0
   12a48:	6b858593          	addi	a1,a1,1720 # 556b8 <CSWTCH.18+0x35b0>
   12a4c:	6d850513          	addi	a0,a0,1752 # 556d8 <CSWTCH.18+0x35d0>
   12a50:	3ac150ef          	jal	ra,27dfc <t_printf>
   12a54:	01812603          	lw	a2,24(sp)
   12a58:	00042023          	sw	zero,0(s0)
   12a5c:	00600793          	li	a5,6
   12a60:	00c13423          	sd	a2,8(sp)
   12a64:	02f60663          	beq	a2,a5,12a90 <fscanf_main+0xab8>
   12a68:	00000513          	li	a0,0
   12a6c:	27d190ef          	jal	ra,2c4e8 <strerror>
   12a70:	00813603          	ld	a2,8(sp)
   12a74:	00050713          	mv	a4,a0
   12a78:	000a05b7          	lui	a1,0xa0
   12a7c:	00055537          	lui	a0,0x55
   12a80:	00600693          	li	a3,6
   12a84:	a8058593          	addi	a1,a1,-1408 # 9fa80 <messages+0x1d0>
   12a88:	71050513          	addi	a0,a0,1808 # 55710 <CSWTCH.18+0x3608>
   12a8c:	370150ef          	jal	ra,27dfc <t_printf>
   12a90:	01c12603          	lw	a2,28(sp)
   12a94:	00042023          	sw	zero,0(s0)
   12a98:	00800793          	li	a5,8
   12a9c:	00c13423          	sd	a2,8(sp)
   12aa0:	02f60663          	beq	a2,a5,12acc <fscanf_main+0xaf4>
   12aa4:	00000513          	li	a0,0
   12aa8:	241190ef          	jal	ra,2c4e8 <strerror>
   12aac:	00813603          	ld	a2,8(sp)
   12ab0:	00050713          	mv	a4,a0
   12ab4:	000555b7          	lui	a1,0x55
   12ab8:	00055537          	lui	a0,0x55
   12abc:	00800693          	li	a3,8
   12ac0:	74858593          	addi	a1,a1,1864 # 55748 <CSWTCH.18+0x3640>
   12ac4:	75050513          	addi	a0,a0,1872 # 55750 <CSWTCH.18+0x3648>
   12ac8:	334150ef          	jal	ra,27dfc <t_printf>
   12acc:	00042023          	sw	zero,0(s0)
   12ad0:	00048513          	mv	a0,s1
   12ad4:	300270ef          	jal	ra,39dd4 <ftell>
   12ad8:	0005061b          	sext.w	a2,a0
   12adc:	00800793          	li	a5,8
   12ae0:	00c13423          	sd	a2,8(sp)
   12ae4:	02f60663          	beq	a2,a5,12b10 <fscanf_main+0xb38>
   12ae8:	00042503          	lw	a0,0(s0)
   12aec:	1fd190ef          	jal	ra,2c4e8 <strerror>
   12af0:	00813603          	ld	a2,8(sp)
   12af4:	00050713          	mv	a4,a0
   12af8:	000555b7          	lui	a1,0x55
   12afc:	00055537          	lui	a0,0x55
   12b00:	00800693          	li	a3,8
   12b04:	78858593          	addi	a1,a1,1928 # 55788 <CSWTCH.18+0x3680>
   12b08:	79850513          	addi	a0,a0,1944 # 55798 <CSWTCH.18+0x3690>
   12b0c:	2f0150ef          	jal	ra,27dfc <t_printf>
   12b10:	00042023          	sw	zero,0(s0)
   12b14:	00048513          	mv	a0,s1
   12b18:	23c260ef          	jal	ra,38d54 <feof>
   12b1c:	02051663          	bnez	a0,12b48 <fscanf_main+0xb70>
   12b20:	00042503          	lw	a0,0(s0)
   12b24:	1c5190ef          	jal	ra,2c4e8 <strerror>
   12b28:	00050713          	mv	a4,a0
   12b2c:	000555b7          	lui	a1,0x55
   12b30:	00055537          	lui	a0,0x55
   12b34:	00100693          	li	a3,1
   12b38:	00000613          	li	a2,0
   12b3c:	7d058593          	addi	a1,a1,2000 # 557d0 <CSWTCH.18+0x36c8>
   12b40:	7e050513          	addi	a0,a0,2016 # 557e0 <CSWTCH.18+0x36d8>
   12b44:	2b8150ef          	jal	ra,27dfc <t_printf>
   12b48:	00048513          	mv	a0,s1
   12b4c:	13c260ef          	jal	ra,38c88 <fclose>
   12b50:	2b00006f          	j	12e00 <fscanf_main+0xe28>
   12b54:	02c12503          	lw	a0,44(sp)
   12b58:	000565b7          	lui	a1,0x56
   12b5c:	00d00613          	li	a2,13
   12b60:	00042023          	sw	zero,0(s0)
   12b64:	30858593          	addi	a1,a1,776 # 56308 <CSWTCH.18+0x4200>
   12b68:	424330ef          	jal	ra,45f8c <write>
   12b6c:	0005061b          	sext.w	a2,a0
   12b70:	00d00793          	li	a5,13
   12b74:	02f60863          	beq	a2,a5,12ba4 <fscanf_main+0xbcc>
   12b78:	00042503          	lw	a0,0(s0)
   12b7c:	00c13423          	sd	a2,8(sp)
   12b80:	169190ef          	jal	ra,2c4e8 <strerror>
   12b84:	00813603          	ld	a2,8(sp)
   12b88:	00050713          	mv	a4,a0
   12b8c:	000555b7          	lui	a1,0x55
   12b90:	00055537          	lui	a0,0x55
   12b94:	00d00693          	li	a3,13
   12b98:	30858593          	addi	a1,a1,776 # 55308 <CSWTCH.18+0x3200>
   12b9c:	33050513          	addi	a0,a0,816 # 55330 <CSWTCH.18+0x3228>
   12ba0:	25c150ef          	jal	ra,27dfc <t_printf>
   12ba4:	000555b7          	lui	a1,0x55
   12ba8:	00042023          	sw	zero,0(s0)
   12bac:	09810693          	addi	a3,sp,152
   12bb0:	03010613          	addi	a2,sp,48
   12bb4:	37858593          	addi	a1,a1,888 # 55378 <CSWTCH.18+0x3270>
   12bb8:	00048513          	mv	a0,s1
   12bbc:	7c9260ef          	jal	ra,39b84 <fscanf>
   12bc0:	00200793          	li	a5,2
   12bc4:	00a13423          	sd	a0,8(sp)
   12bc8:	02f50663          	beq	a0,a5,12bf4 <fscanf_main+0xc1c>
   12bcc:	00042503          	lw	a0,0(s0)
   12bd0:	119190ef          	jal	ra,2c4e8 <strerror>
   12bd4:	00813603          	ld	a2,8(sp)
   12bd8:	00050713          	mv	a4,a0
   12bdc:	000555b7          	lui	a1,0x55
   12be0:	00055537          	lui	a0,0x55
   12be4:	00200693          	li	a3,2
   12be8:	38858593          	addi	a1,a1,904 # 55388 <CSWTCH.18+0x3280>
   12bec:	3a850513          	addi	a0,a0,936 # 553a8 <CSWTCH.18+0x32a0>
   12bf0:	20c150ef          	jal	ra,27dfc <t_printf>
   12bf4:	00055937          	lui	s2,0x55
   12bf8:	3f090593          	addi	a1,s2,1008 # 553f0 <CSWTCH.18+0x32e8>
   12bfc:	03010513          	addi	a0,sp,48
   12c00:	2c12c0ef          	jal	ra,3f6c0 <strcmp>
   12c04:	02050063          	beqz	a0,12c24 <fscanf_main+0xc4c>
   12c08:	000556b7          	lui	a3,0x55
   12c0c:	00055537          	lui	a0,0x55
   12c10:	3f868693          	addi	a3,a3,1016 # 553f8 <CSWTCH.18+0x32f0>
   12c14:	3f090613          	addi	a2,s2,1008
   12c18:	03010593          	addi	a1,sp,48
   12c1c:	41050513          	addi	a0,a0,1040 # 55410 <CSWTCH.18+0x3308>
   12c20:	1dc150ef          	jal	ra,27dfc <t_printf>
   12c24:	00055937          	lui	s2,0x55
   12c28:	44090593          	addi	a1,s2,1088 # 55440 <CSWTCH.18+0x3338>
   12c2c:	09810513          	addi	a0,sp,152
   12c30:	2912c0ef          	jal	ra,3f6c0 <strcmp>
   12c34:	02050063          	beqz	a0,12c54 <fscanf_main+0xc7c>
   12c38:	000556b7          	lui	a3,0x55
   12c3c:	00055537          	lui	a0,0x55
   12c40:	44868693          	addi	a3,a3,1096 # 55448 <CSWTCH.18+0x3340>
   12c44:	44090613          	addi	a2,s2,1088
   12c48:	09810593          	addi	a1,sp,152
   12c4c:	46050513          	addi	a0,a0,1120 # 55460 <CSWTCH.18+0x3358>
   12c50:	1ac150ef          	jal	ra,27dfc <t_printf>
   12c54:	00042023          	sw	zero,0(s0)
   12c58:	00048513          	mv	a0,s1
   12c5c:	3e8260ef          	jal	ra,39044 <fgetc>
   12c60:	07200793          	li	a5,114
   12c64:	00a13423          	sd	a0,8(sp)
   12c68:	02f50663          	beq	a0,a5,12c94 <fscanf_main+0xcbc>
   12c6c:	00042503          	lw	a0,0(s0)
   12c70:	079190ef          	jal	ra,2c4e8 <strerror>
   12c74:	00813603          	ld	a2,8(sp)
   12c78:	00050713          	mv	a4,a0
   12c7c:	000555b7          	lui	a1,0x55
   12c80:	00055537          	lui	a0,0x55
   12c84:	07200693          	li	a3,114
   12c88:	49058593          	addi	a1,a1,1168 # 55490 <CSWTCH.18+0x3388>
   12c8c:	4a050513          	addi	a0,a0,1184 # 554a0 <CSWTCH.18+0x3398>
   12c90:	16c150ef          	jal	ra,27dfc <t_printf>
   12c94:	02c12503          	lw	a0,44(sp)
   12c98:	000555b7          	lui	a1,0x55
   12c9c:	00a00613          	li	a2,10
   12ca0:	00042023          	sw	zero,0(s0)
   12ca4:	4e058593          	addi	a1,a1,1248 # 554e0 <CSWTCH.18+0x33d8>
   12ca8:	2e4330ef          	jal	ra,45f8c <write>
   12cac:	0005061b          	sext.w	a2,a0
   12cb0:	00a00793          	li	a5,10
   12cb4:	00c13423          	sd	a2,8(sp)
   12cb8:	02f60663          	beq	a2,a5,12ce4 <fscanf_main+0xd0c>
   12cbc:	00042503          	lw	a0,0(s0)
   12cc0:	029190ef          	jal	ra,2c4e8 <strerror>
   12cc4:	00813603          	ld	a2,8(sp)
   12cc8:	00050713          	mv	a4,a0
   12ccc:	000555b7          	lui	a1,0x55
   12cd0:	00055537          	lui	a0,0x55
   12cd4:	00a00693          	li	a3,10
   12cd8:	4f058593          	addi	a1,a1,1264 # 554f0 <CSWTCH.18+0x33e8>
   12cdc:	51050513          	addi	a0,a0,1296 # 55510 <CSWTCH.18+0x3408>
   12ce0:	11c150ef          	jal	ra,27dfc <t_printf>
   12ce4:	000555b7          	lui	a1,0x55
   12ce8:	00042023          	sw	zero,0(s0)
   12cec:	01c10693          	addi	a3,sp,28
   12cf0:	01810613          	addi	a2,sp,24
   12cf4:	55858593          	addi	a1,a1,1368 # 55558 <CSWTCH.18+0x3450>
   12cf8:	00048513          	mv	a0,s1
   12cfc:	689260ef          	jal	ra,39b84 <fscanf>
   12d00:	00100793          	li	a5,1
   12d04:	00a13423          	sd	a0,8(sp)
   12d08:	02f50663          	beq	a0,a5,12d34 <fscanf_main+0xd5c>
   12d0c:	00042503          	lw	a0,0(s0)
   12d10:	7d8190ef          	jal	ra,2c4e8 <strerror>
   12d14:	00813603          	ld	a2,8(sp)
   12d18:	00050713          	mv	a4,a0
   12d1c:	000555b7          	lui	a1,0x55
   12d20:	00055537          	lui	a0,0x55
   12d24:	00100693          	li	a3,1
   12d28:	56858593          	addi	a1,a1,1384 # 55568 <CSWTCH.18+0x3460>
   12d2c:	58850513          	addi	a0,a0,1416 # 55588 <CSWTCH.18+0x3480>
   12d30:	0cc150ef          	jal	ra,27dfc <t_printf>
   12d34:	01812603          	lw	a2,24(sp)
   12d38:	00042023          	sw	zero,0(s0)
   12d3c:	01200793          	li	a5,18
   12d40:	00c13423          	sd	a2,8(sp)
   12d44:	02f60663          	beq	a2,a5,12d70 <fscanf_main+0xd98>
   12d48:	00000513          	li	a0,0
   12d4c:	79c190ef          	jal	ra,2c4e8 <strerror>
   12d50:	00813603          	ld	a2,8(sp)
   12d54:	00050713          	mv	a4,a0
   12d58:	000a05b7          	lui	a1,0xa0
   12d5c:	00055537          	lui	a0,0x55
   12d60:	01200693          	li	a3,18
   12d64:	a8058593          	addi	a1,a1,-1408 # 9fa80 <messages+0x1d0>
   12d68:	5d050513          	addi	a0,a0,1488 # 555d0 <CSWTCH.18+0x34c8>
   12d6c:	090150ef          	jal	ra,27dfc <t_printf>
   12d70:	00042023          	sw	zero,0(s0)
   12d74:	00048513          	mv	a0,s1
   12d78:	2cc260ef          	jal	ra,39044 <fgetc>
   12d7c:	03300793          	li	a5,51
   12d80:	00a13423          	sd	a0,8(sp)
   12d84:	02f50663          	beq	a0,a5,12db0 <fscanf_main+0xdd8>
   12d88:	00042503          	lw	a0,0(s0)
   12d8c:	75c190ef          	jal	ra,2c4e8 <strerror>
   12d90:	00813603          	ld	a2,8(sp)
   12d94:	00050713          	mv	a4,a0
   12d98:	000555b7          	lui	a1,0x55
   12d9c:	00055537          	lui	a0,0x55
   12da0:	03300693          	li	a3,51
   12da4:	49058593          	addi	a1,a1,1168 # 55490 <CSWTCH.18+0x3388>
   12da8:	60850513          	addi	a0,a0,1544 # 55608 <CSWTCH.18+0x3500>
   12dac:	050150ef          	jal	ra,27dfc <t_printf>
   12db0:	00048513          	mv	a0,s1
   12db4:	6d5250ef          	jal	ra,38c88 <fclose>
   12db8:	02c12503          	lw	a0,44(sp)
   12dbc:	78d320ef          	jal	ra,45d48 <close>
   12dc0:	00055537          	lui	a0,0x55
   12dc4:	00042023          	sw	zero,0(s0)
   12dc8:	64050513          	addi	a0,a0,1600 # 55640 <CSWTCH.18+0x3538>
   12dcc:	730150ef          	jal	ra,284fc <writetemp>
   12dd0:	00050493          	mv	s1,a0
   12dd4:	c20514e3          	bnez	a0,129fc <fscanf_main+0xa24>
   12dd8:	00042503          	lw	a0,0(s0)
   12ddc:	70c190ef          	jal	ra,2c4e8 <strerror>
   12de0:	00050713          	mv	a4,a0
   12de4:	000555b7          	lui	a1,0x55
   12de8:	00055537          	lui	a0,0x55
   12dec:	00100693          	li	a3,1
   12df0:	00000613          	li	a2,0
   12df4:	65058593          	addi	a1,a1,1616 # 55650 <CSWTCH.18+0x3548>
   12df8:	67050513          	addi	a0,a0,1648 # 55670 <CSWTCH.18+0x3568>
   12dfc:	000150ef          	jal	ra,27dfc <t_printf>
   12e00:	00056537          	lui	a0,0x56
   12e04:	00042023          	sw	zero,0(s0)
   12e08:	81850513          	addi	a0,a0,-2024 # 55818 <CSWTCH.18+0x3710>
   12e0c:	6f0150ef          	jal	ra,284fc <writetemp>
   12e10:	00050493          	mv	s1,a0
   12e14:	9e0510e3          	bnez	a0,127f4 <fscanf_main+0x81c>
   12e18:	00042503          	lw	a0,0(s0)
   12e1c:	6cc190ef          	jal	ra,2c4e8 <strerror>
   12e20:	00050713          	mv	a4,a0
   12e24:	000565b7          	lui	a1,0x56
   12e28:	00056537          	lui	a0,0x56
   12e2c:	00100693          	li	a3,1
   12e30:	00000613          	li	a2,0
   12e34:	82858593          	addi	a1,a1,-2008 # 55828 <CSWTCH.18+0x3720>
   12e38:	85050513          	addi	a0,a0,-1968 # 55850 <CSWTCH.18+0x3748>
   12e3c:	7c1140ef          	jal	ra,27dfc <t_printf>
   12e40:	00056537          	lui	a0,0x56
   12e44:	00042023          	sw	zero,0(s0)
   12e48:	ac050513          	addi	a0,a0,-1344 # 55ac0 <CSWTCH.18+0x39b8>
   12e4c:	6b0150ef          	jal	ra,284fc <writetemp>
   12e50:	00050493          	mv	s1,a0
   12e54:	d4051c63          	bnez	a0,123ac <fscanf_main+0x3d4>
   12e58:	00042503          	lw	a0,0(s0)
   12e5c:	68c190ef          	jal	ra,2c4e8 <strerror>
   12e60:	00050713          	mv	a4,a0
   12e64:	000565b7          	lui	a1,0x56
   12e68:	00056537          	lui	a0,0x56
   12e6c:	00100693          	li	a3,1
   12e70:	00000613          	li	a2,0
   12e74:	ac858593          	addi	a1,a1,-1336 # 55ac8 <CSWTCH.18+0x39c0>
   12e78:	ae850513          	addi	a0,a0,-1304 # 55ae8 <CSWTCH.18+0x39e0>
   12e7c:	781140ef          	jal	ra,27dfc <t_printf>
   12e80:	00056537          	lui	a0,0x56
   12e84:	00042023          	sw	zero,0(s0)
   12e88:	f2050513          	addi	a0,a0,-224 # 55f20 <CSWTCH.18+0x3e18>
   12e8c:	670150ef          	jal	ra,284fc <writetemp>
   12e90:	00050493          	mv	s1,a0
   12e94:	b6051463          	bnez	a0,121fc <fscanf_main+0x224>
   12e98:	00042503          	lw	a0,0(s0)
   12e9c:	64c190ef          	jal	ra,2c4e8 <strerror>
   12ea0:	00050713          	mv	a4,a0
   12ea4:	000565b7          	lui	a1,0x56
   12ea8:	00056537          	lui	a0,0x56
   12eac:	00100693          	li	a3,1
   12eb0:	00000613          	li	a2,0
   12eb4:	f3058593          	addi	a1,a1,-208 # 55f30 <CSWTCH.18+0x3e28>
   12eb8:	f5850513          	addi	a0,a0,-168 # 55f58 <CSWTCH.18+0x3e50>
   12ebc:	741140ef          	jal	ra,27dfc <t_printf>
   12ec0:	00056537          	lui	a0,0x56
   12ec4:	00042023          	sw	zero,0(s0)
   12ec8:	11850513          	addi	a0,a0,280 # 56118 <CSWTCH.18+0x4010>
   12ecc:	630150ef          	jal	ra,284fc <writetemp>
   12ed0:	00050493          	mv	s1,a0
   12ed4:	00050463          	beqz	a0,12edc <fscanf_main+0xf04>
   12ed8:	9c8ff06f          	j	120a0 <fscanf_main+0xc8>
   12edc:	00042503          	lw	a0,0(s0)
   12ee0:	608190ef          	jal	ra,2c4e8 <strerror>
   12ee4:	00050713          	mv	a4,a0
   12ee8:	000565b7          	lui	a1,0x56
   12eec:	00056537          	lui	a0,0x56
   12ef0:	00100693          	li	a3,1
   12ef4:	00000613          	li	a2,0
   12ef8:	12058593          	addi	a1,a1,288 # 56120 <CSWTCH.18+0x4018>
   12efc:	13850513          	addi	a0,a0,312 # 56138 <CSWTCH.18+0x4030>
   12f00:	6fd140ef          	jal	ra,27dfc <t_printf>
   12f04:	bb01a503          	lw	a0,-1104(gp) # a7908 <t_status>
   12f08:	0005051b          	sext.w	a0,a0
   12f0c:	97cff06f          	j	12088 <fscanf_main+0xb0>

0000000000012f10 <fwscanf_main>:
   12f10:	ef010113          	addi	sp,sp,-272
   12f14:	10813023          	sd	s0,256(sp)
   12f18:	10113423          	sd	ra,264(sp)
   12f1c:	0e913c23          	sd	s1,248(sp)
   12f20:	0f213823          	sd	s2,240(sp)
   12f24:	56c190ef          	jal	ra,2c490 <__errno_location>
   12f28:	00050413          	mv	s0,a0
   12f2c:	00052023          	sw	zero,0(a0)
   12f30:	00055537          	lui	a0,0x55
   12f34:	64050513          	addi	a0,a0,1600 # 55640 <CSWTCH.18+0x3538>
   12f38:	634150ef          	jal	ra,2856c <writetemp>
   12f3c:	2a051ce3          	bnez	a0,139f4 <fwscanf_main+0xae4>
   12f40:	00042503          	lw	a0,0(s0)
   12f44:	5a4190ef          	jal	ra,2c4e8 <strerror>
   12f48:	00050713          	mv	a4,a0
   12f4c:	000555b7          	lui	a1,0x55
   12f50:	00056537          	lui	a0,0x56
   12f54:	00100693          	li	a3,1
   12f58:	00000613          	li	a2,0
   12f5c:	65058593          	addi	a1,a1,1616 # 55650 <CSWTCH.18+0x3548>
   12f60:	36850513          	addi	a0,a0,872 # 56368 <CSWTCH.18+0x4260>
   12f64:	699140ef          	jal	ra,27dfc <t_printf>
   12f68:	00056537          	lui	a0,0x56
   12f6c:	00042023          	sw	zero,0(s0)
   12f70:	81850513          	addi	a0,a0,-2024 # 55818 <CSWTCH.18+0x3710>
   12f74:	5f8150ef          	jal	ra,2856c <writetemp>
   12f78:	00050493          	mv	s1,a0
   12f7c:	060516e3          	bnez	a0,137e8 <fwscanf_main+0x8d8>
   12f80:	00042503          	lw	a0,0(s0)
   12f84:	564190ef          	jal	ra,2c4e8 <strerror>
   12f88:	00050713          	mv	a4,a0
   12f8c:	000565b7          	lui	a1,0x56
   12f90:	00056537          	lui	a0,0x56
   12f94:	00100693          	li	a3,1
   12f98:	00000613          	li	a2,0
   12f9c:	82858593          	addi	a1,a1,-2008 # 55828 <CSWTCH.18+0x3720>
   12fa0:	4e850513          	addi	a0,a0,1256 # 564e8 <CSWTCH.18+0x43e0>
   12fa4:	659140ef          	jal	ra,27dfc <t_printf>
   12fa8:	00056537          	lui	a0,0x56
   12fac:	00042023          	sw	zero,0(s0)
   12fb0:	ac050513          	addi	a0,a0,-1344 # 55ac0 <CSWTCH.18+0x39b8>
   12fb4:	5b8150ef          	jal	ra,2856c <writetemp>
   12fb8:	00050493          	mv	s1,a0
   12fbc:	3c051c63          	bnez	a0,13394 <fwscanf_main+0x484>
   12fc0:	00042503          	lw	a0,0(s0)
   12fc4:	524190ef          	jal	ra,2c4e8 <strerror>
   12fc8:	00050713          	mv	a4,a0
   12fcc:	000565b7          	lui	a1,0x56
   12fd0:	00056537          	lui	a0,0x56
   12fd4:	00100693          	li	a3,1
   12fd8:	00000613          	li	a2,0
   12fdc:	ac858593          	addi	a1,a1,-1336 # 55ac8 <CSWTCH.18+0x39c0>
   12fe0:	72050513          	addi	a0,a0,1824 # 56720 <CSWTCH.18+0x4618>
   12fe4:	619140ef          	jal	ra,27dfc <t_printf>
   12fe8:	00056537          	lui	a0,0x56
   12fec:	00042023          	sw	zero,0(s0)
   12ff0:	f2050513          	addi	a0,a0,-224 # 55f20 <CSWTCH.18+0x3e18>
   12ff4:	578150ef          	jal	ra,2856c <writetemp>
   12ff8:	00050493          	mv	s1,a0
   12ffc:	1e051463          	bnez	a0,131e4 <fwscanf_main+0x2d4>
   13000:	00042503          	lw	a0,0(s0)
   13004:	4e4190ef          	jal	ra,2c4e8 <strerror>
   13008:	00050713          	mv	a4,a0
   1300c:	000565b7          	lui	a1,0x56
   13010:	00057537          	lui	a0,0x57
   13014:	00100693          	li	a3,1
   13018:	00000613          	li	a2,0
   1301c:	f3058593          	addi	a1,a1,-208 # 55f30 <CSWTCH.18+0x3e28>
   13020:	b4050513          	addi	a0,a0,-1216 # 56b40 <CSWTCH.18+0x4a38>
   13024:	5d9140ef          	jal	ra,27dfc <t_printf>
   13028:	00056537          	lui	a0,0x56
   1302c:	00042023          	sw	zero,0(s0)
   13030:	11850513          	addi	a0,a0,280 # 56118 <CSWTCH.18+0x4010>
   13034:	538150ef          	jal	ra,2856c <writetemp>
   13038:	00050493          	mv	s1,a0
   1303c:	04051663          	bnez	a0,13088 <fwscanf_main+0x178>
   13040:	00042503          	lw	a0,0(s0)
   13044:	4a4190ef          	jal	ra,2c4e8 <strerror>
   13048:	00050713          	mv	a4,a0
   1304c:	000565b7          	lui	a1,0x56
   13050:	00057537          	lui	a0,0x57
   13054:	00100693          	li	a3,1
   13058:	00000613          	li	a2,0
   1305c:	12058593          	addi	a1,a1,288 # 56120 <CSWTCH.18+0x4018>
   13060:	d0050513          	addi	a0,a0,-768 # 56d00 <CSWTCH.18+0x4bf8>
   13064:	599140ef          	jal	ra,27dfc <t_printf>
   13068:	bb01a503          	lw	a0,-1104(gp) # a7908 <t_status>
   1306c:	10813083          	ld	ra,264(sp)
   13070:	10013403          	ld	s0,256(sp)
   13074:	0f813483          	ld	s1,248(sp)
   13078:	0f013903          	ld	s2,240(sp)
   1307c:	0005051b          	sext.w	a0,a0
   13080:	11010113          	addi	sp,sp,272
   13084:	00008067          	ret
   13088:	000575b7          	lui	a1,0x57
   1308c:	fff00793          	li	a5,-1
   13090:	01010613          	addi	a2,sp,16
   13094:	00042023          	sw	zero,0(s0)
   13098:	01410693          	addi	a3,sp,20
   1309c:	eb058593          	addi	a1,a1,-336 # 56eb0 <CSWTCH.18+0x4da8>
   130a0:	00f12a23          	sw	a5,20(sp)
   130a4:	00f12823          	sw	a5,16(sp)
   130a8:	789260ef          	jal	ra,3a030 <fwscanf>
   130ac:	00050613          	mv	a2,a0
   130b0:	02050863          	beqz	a0,130e0 <fwscanf_main+0x1d0>
   130b4:	00042503          	lw	a0,0(s0)
   130b8:	00c13423          	sd	a2,8(sp)
   130bc:	42c190ef          	jal	ra,2c4e8 <strerror>
   130c0:	00813603          	ld	a2,8(sp)
   130c4:	00050713          	mv	a4,a0
   130c8:	000575b7          	lui	a1,0x57
   130cc:	00057537          	lui	a0,0x57
   130d0:	00000693          	li	a3,0
   130d4:	d4858593          	addi	a1,a1,-696 # 56d48 <CSWTCH.18+0x4c40>
   130d8:	d6850513          	addi	a0,a0,-664 # 56d68 <CSWTCH.18+0x4c60>
   130dc:	521140ef          	jal	ra,27dfc <t_printf>
   130e0:	01012603          	lw	a2,16(sp)
   130e4:	00042023          	sw	zero,0(s0)
   130e8:	fff00793          	li	a5,-1
   130ec:	00c13423          	sd	a2,8(sp)
   130f0:	02f60663          	beq	a2,a5,1311c <fwscanf_main+0x20c>
   130f4:	00000513          	li	a0,0
   130f8:	3f0190ef          	jal	ra,2c4e8 <strerror>
   130fc:	00813603          	ld	a2,8(sp)
   13100:	00050713          	mv	a4,a0
   13104:	000a05b7          	lui	a1,0xa0
   13108:	00057537          	lui	a0,0x57
   1310c:	fff00693          	li	a3,-1
   13110:	a8058593          	addi	a1,a1,-1408 # 9fa80 <messages+0x1d0>
   13114:	da050513          	addi	a0,a0,-608 # 56da0 <CSWTCH.18+0x4c98>
   13118:	4e5140ef          	jal	ra,27dfc <t_printf>
   1311c:	01412603          	lw	a2,20(sp)
   13120:	00042023          	sw	zero,0(s0)
   13124:	fff00793          	li	a5,-1
   13128:	00c13423          	sd	a2,8(sp)
   1312c:	02f60663          	beq	a2,a5,13158 <fwscanf_main+0x248>
   13130:	00000513          	li	a0,0
   13134:	3b4190ef          	jal	ra,2c4e8 <strerror>
   13138:	00813603          	ld	a2,8(sp)
   1313c:	00050713          	mv	a4,a0
   13140:	000555b7          	lui	a1,0x55
   13144:	00057537          	lui	a0,0x57
   13148:	fff00693          	li	a3,-1
   1314c:	74858593          	addi	a1,a1,1864 # 55748 <CSWTCH.18+0x3640>
   13150:	dd850513          	addi	a0,a0,-552 # 56dd8 <CSWTCH.18+0x4cd0>
   13154:	4a9140ef          	jal	ra,27dfc <t_printf>
   13158:	00042023          	sw	zero,0(s0)
   1315c:	00048513          	mv	a0,s1
   13160:	475260ef          	jal	ra,39dd4 <ftell>
   13164:	0005061b          	sext.w	a2,a0
   13168:	00200793          	li	a5,2
   1316c:	00c13423          	sd	a2,8(sp)
   13170:	02f60663          	beq	a2,a5,1319c <fwscanf_main+0x28c>
   13174:	00042503          	lw	a0,0(s0)
   13178:	370190ef          	jal	ra,2c4e8 <strerror>
   1317c:	00813603          	ld	a2,8(sp)
   13180:	00050713          	mv	a4,a0
   13184:	000555b7          	lui	a1,0x55
   13188:	00057537          	lui	a0,0x57
   1318c:	00200693          	li	a3,2
   13190:	78858593          	addi	a1,a1,1928 # 55788 <CSWTCH.18+0x3680>
   13194:	e1050513          	addi	a0,a0,-496 # 56e10 <CSWTCH.18+0x4d08>
   13198:	465140ef          	jal	ra,27dfc <t_printf>
   1319c:	00042023          	sw	zero,0(s0)
   131a0:	00048513          	mv	a0,s1
   131a4:	3b1250ef          	jal	ra,38d54 <feof>
   131a8:	02050863          	beqz	a0,131d8 <fwscanf_main+0x2c8>
   131ac:	00a13423          	sd	a0,8(sp)
   131b0:	00042503          	lw	a0,0(s0)
   131b4:	334190ef          	jal	ra,2c4e8 <strerror>
   131b8:	00813603          	ld	a2,8(sp)
   131bc:	00050713          	mv	a4,a0
   131c0:	000565b7          	lui	a1,0x56
   131c4:	00057537          	lui	a0,0x57
   131c8:	00000693          	li	a3,0
   131cc:	a4858593          	addi	a1,a1,-1464 # 55a48 <CSWTCH.18+0x3940>
   131d0:	e4850513          	addi	a0,a0,-440 # 56e48 <CSWTCH.18+0x4d40>
   131d4:	429140ef          	jal	ra,27dfc <t_printf>
   131d8:	00048513          	mv	a0,s1
   131dc:	2ad250ef          	jal	ra,38c88 <fclose>
   131e0:	e89ff06f          	j	13068 <fwscanf_main+0x158>
   131e4:	fff00793          	li	a5,-1
   131e8:	00f12a23          	sw	a5,20(sp)
   131ec:	00f12823          	sw	a5,16(sp)
   131f0:	8181b787          	fld	fa5,-2024(gp) # a7570 <__SDATA_BEGIN__+0x18>
   131f4:	000575b7          	lui	a1,0x57
   131f8:	01810613          	addi	a2,sp,24
   131fc:	00042023          	sw	zero,0(s0)
   13200:	01410713          	addi	a4,sp,20
   13204:	01010693          	addi	a3,sp,16
   13208:	ec858593          	addi	a1,a1,-312 # 56ec8 <CSWTCH.18+0x4dc0>
   1320c:	00f13c27          	fsd	fa5,24(sp)
   13210:	621260ef          	jal	ra,3a030 <fwscanf>
   13214:	00200793          	li	a5,2
   13218:	00050613          	mv	a2,a0
   1321c:	02f50863          	beq	a0,a5,1324c <fwscanf_main+0x33c>
   13220:	00042503          	lw	a0,0(s0)
   13224:	00c13423          	sd	a2,8(sp)
   13228:	2c0190ef          	jal	ra,2c4e8 <strerror>
   1322c:	00813603          	ld	a2,8(sp)
   13230:	00050713          	mv	a4,a0
   13234:	000575b7          	lui	a1,0x57
   13238:	00057537          	lui	a0,0x57
   1323c:	00200693          	li	a3,2
   13240:	b8858593          	addi	a1,a1,-1144 # 56b88 <CSWTCH.18+0x4a80>
   13244:	bb050513          	addi	a0,a0,-1104 # 56bb0 <CSWTCH.18+0x4aa8>
   13248:	3b5140ef          	jal	ra,27dfc <t_printf>
   1324c:	01813787          	fld	fa5,24(sp)
   13250:	8201b707          	fld	fa4,-2016(gp) # a7578 <__SDATA_BEGIN__+0x20>
   13254:	00042023          	sw	zero,0(s0)
   13258:	a2e7a7d3          	feq.d	a5,fa5,fa4
   1325c:	02079c63          	bnez	a5,13294 <fwscanf_main+0x384>
   13260:	00000513          	li	a0,0
   13264:	00f13427          	fsd	fa5,8(sp)
   13268:	280190ef          	jal	ra,2c4e8 <strerror>
   1326c:	8201b707          	fld	fa4,-2016(gp) # a7578 <__SDATA_BEGIN__+0x20>
   13270:	00813787          	fld	fa5,8(sp)
   13274:	00050713          	mv	a4,a0
   13278:	e20706d3          	fmv.x.d	a3,fa4
   1327c:	e2078653          	fmv.x.d	a2,fa5
   13280:	000565b7          	lui	a1,0x56
   13284:	00057537          	lui	a0,0x57
   13288:	b9058593          	addi	a1,a1,-1136 # 55b90 <CSWTCH.18+0x3a88>
   1328c:	be850513          	addi	a0,a0,-1048 # 56be8 <CSWTCH.18+0x4ae0>
   13290:	36d140ef          	jal	ra,27dfc <t_printf>
   13294:	01012603          	lw	a2,16(sp)
   13298:	00042023          	sw	zero,0(s0)
   1329c:	00600793          	li	a5,6
   132a0:	00c13423          	sd	a2,8(sp)
   132a4:	02f60663          	beq	a2,a5,132d0 <fwscanf_main+0x3c0>
   132a8:	00000513          	li	a0,0
   132ac:	23c190ef          	jal	ra,2c4e8 <strerror>
   132b0:	00813603          	ld	a2,8(sp)
   132b4:	00050713          	mv	a4,a0
   132b8:	000a05b7          	lui	a1,0xa0
   132bc:	00057537          	lui	a0,0x57
   132c0:	00600693          	li	a3,6
   132c4:	a8058593          	addi	a1,a1,-1408 # 9fa80 <messages+0x1d0>
   132c8:	c2050513          	addi	a0,a0,-992 # 56c20 <CSWTCH.18+0x4b18>
   132cc:	331140ef          	jal	ra,27dfc <t_printf>
   132d0:	01412603          	lw	a2,20(sp)
   132d4:	00042023          	sw	zero,0(s0)
   132d8:	00a00793          	li	a5,10
   132dc:	00c13423          	sd	a2,8(sp)
   132e0:	02f60663          	beq	a2,a5,1330c <fwscanf_main+0x3fc>
   132e4:	00000513          	li	a0,0
   132e8:	200190ef          	jal	ra,2c4e8 <strerror>
   132ec:	00813603          	ld	a2,8(sp)
   132f0:	00050713          	mv	a4,a0
   132f4:	000555b7          	lui	a1,0x55
   132f8:	00057537          	lui	a0,0x57
   132fc:	00a00693          	li	a3,10
   13300:	74858593          	addi	a1,a1,1864 # 55748 <CSWTCH.18+0x3640>
   13304:	c5850513          	addi	a0,a0,-936 # 56c58 <CSWTCH.18+0x4b50>
   13308:	2f5140ef          	jal	ra,27dfc <t_printf>
   1330c:	00042023          	sw	zero,0(s0)
   13310:	00048513          	mv	a0,s1
   13314:	2c1260ef          	jal	ra,39dd4 <ftell>
   13318:	0005061b          	sext.w	a2,a0
   1331c:	00d00793          	li	a5,13
   13320:	00c13423          	sd	a2,8(sp)
   13324:	02f60663          	beq	a2,a5,13350 <fwscanf_main+0x440>
   13328:	00042503          	lw	a0,0(s0)
   1332c:	1bc190ef          	jal	ra,2c4e8 <strerror>
   13330:	00813603          	ld	a2,8(sp)
   13334:	00050713          	mv	a4,a0
   13338:	000555b7          	lui	a1,0x55
   1333c:	00057537          	lui	a0,0x57
   13340:	00d00693          	li	a3,13
   13344:	78858593          	addi	a1,a1,1928 # 55788 <CSWTCH.18+0x3680>
   13348:	c9050513          	addi	a0,a0,-880 # 56c90 <CSWTCH.18+0x4b88>
   1334c:	2b1140ef          	jal	ra,27dfc <t_printf>
   13350:	00042023          	sw	zero,0(s0)
   13354:	00048513          	mv	a0,s1
   13358:	1fd250ef          	jal	ra,38d54 <feof>
   1335c:	02051663          	bnez	a0,13388 <fwscanf_main+0x478>
   13360:	00042503          	lw	a0,0(s0)
   13364:	184190ef          	jal	ra,2c4e8 <strerror>
   13368:	00050713          	mv	a4,a0
   1336c:	000555b7          	lui	a1,0x55
   13370:	00057537          	lui	a0,0x57
   13374:	00100693          	li	a3,1
   13378:	00000613          	li	a2,0
   1337c:	7d058593          	addi	a1,a1,2000 # 557d0 <CSWTCH.18+0x36c8>
   13380:	cc850513          	addi	a0,a0,-824 # 56cc8 <CSWTCH.18+0x4bc0>
   13384:	279140ef          	jal	ra,27dfc <t_printf>
   13388:	00048513          	mv	a0,s1
   1338c:	0fd250ef          	jal	ra,38c88 <fclose>
   13390:	c99ff06f          	j	13028 <fwscanf_main+0x118>
   13394:	8181b787          	fld	fa5,-2024(gp) # a7570 <__SDATA_BEGIN__+0x18>
   13398:	000575b7          	lui	a1,0x57
   1339c:	fff00793          	li	a5,-1
   133a0:	01810613          	addi	a2,sp,24
   133a4:	00042023          	sw	zero,0(s0)
   133a8:	01410713          	addi	a4,sp,20
   133ac:	01010693          	addi	a3,sp,16
   133b0:	ef058593          	addi	a1,a1,-272 # 56ef0 <CSWTCH.18+0x4de8>
   133b4:	00f12a23          	sw	a5,20(sp)
   133b8:	00f12823          	sw	a5,16(sp)
   133bc:	00f13c27          	fsd	fa5,24(sp)
   133c0:	471260ef          	jal	ra,3a030 <fwscanf>
   133c4:	00050613          	mv	a2,a0
   133c8:	02050863          	beqz	a0,133f8 <fwscanf_main+0x4e8>
   133cc:	00042503          	lw	a0,0(s0)
   133d0:	00c13423          	sd	a2,8(sp)
   133d4:	114190ef          	jal	ra,2c4e8 <strerror>
   133d8:	00813603          	ld	a2,8(sp)
   133dc:	00050713          	mv	a4,a0
   133e0:	000565b7          	lui	a1,0x56
   133e4:	00056537          	lui	a0,0x56
   133e8:	00000693          	li	a3,0
   133ec:	76858593          	addi	a1,a1,1896 # 56768 <CSWTCH.18+0x4660>
   133f0:	79050513          	addi	a0,a0,1936 # 56790 <CSWTCH.18+0x4688>
   133f4:	209140ef          	jal	ra,27dfc <t_printf>
   133f8:	01813787          	fld	fa5,24(sp)
   133fc:	8181b707          	fld	fa4,-2024(gp) # a7570 <__SDATA_BEGIN__+0x18>
   13400:	00042023          	sw	zero,0(s0)
   13404:	a2e7a7d3          	feq.d	a5,fa5,fa4
   13408:	02079c63          	bnez	a5,13440 <fwscanf_main+0x530>
   1340c:	00000513          	li	a0,0
   13410:	00f13427          	fsd	fa5,8(sp)
   13414:	0d4190ef          	jal	ra,2c4e8 <strerror>
   13418:	8181b707          	fld	fa4,-2024(gp) # a7570 <__SDATA_BEGIN__+0x18>
   1341c:	00813787          	fld	fa5,8(sp)
   13420:	00050713          	mv	a4,a0
   13424:	e20706d3          	fmv.x.d	a3,fa4
   13428:	e2078653          	fmv.x.d	a2,fa5
   1342c:	000565b7          	lui	a1,0x56
   13430:	00056537          	lui	a0,0x56
   13434:	b9058593          	addi	a1,a1,-1136 # 55b90 <CSWTCH.18+0x3a88>
   13438:	7c850513          	addi	a0,a0,1992 # 567c8 <CSWTCH.18+0x46c0>
   1343c:	1c1140ef          	jal	ra,27dfc <t_printf>
   13440:	01012603          	lw	a2,16(sp)
   13444:	00042023          	sw	zero,0(s0)
   13448:	fff00793          	li	a5,-1
   1344c:	00c13423          	sd	a2,8(sp)
   13450:	02f60663          	beq	a2,a5,1347c <fwscanf_main+0x56c>
   13454:	00000513          	li	a0,0
   13458:	090190ef          	jal	ra,2c4e8 <strerror>
   1345c:	00813603          	ld	a2,8(sp)
   13460:	00050713          	mv	a4,a0
   13464:	000a05b7          	lui	a1,0xa0
   13468:	00057537          	lui	a0,0x57
   1346c:	fff00693          	li	a3,-1
   13470:	a8058593          	addi	a1,a1,-1408 # 9fa80 <messages+0x1d0>
   13474:	80050513          	addi	a0,a0,-2048 # 56800 <CSWTCH.18+0x46f8>
   13478:	185140ef          	jal	ra,27dfc <t_printf>
   1347c:	01412603          	lw	a2,20(sp)
   13480:	00042023          	sw	zero,0(s0)
   13484:	fff00793          	li	a5,-1
   13488:	00c13423          	sd	a2,8(sp)
   1348c:	02f60663          	beq	a2,a5,134b8 <fwscanf_main+0x5a8>
   13490:	00000513          	li	a0,0
   13494:	054190ef          	jal	ra,2c4e8 <strerror>
   13498:	00813603          	ld	a2,8(sp)
   1349c:	00050713          	mv	a4,a0
   134a0:	000555b7          	lui	a1,0x55
   134a4:	00057537          	lui	a0,0x57
   134a8:	fff00693          	li	a3,-1
   134ac:	74858593          	addi	a1,a1,1864 # 55748 <CSWTCH.18+0x3640>
   134b0:	83850513          	addi	a0,a0,-1992 # 56838 <CSWTCH.18+0x4730>
   134b4:	149140ef          	jal	ra,27dfc <t_printf>
   134b8:	00042023          	sw	zero,0(s0)
   134bc:	00048513          	mv	a0,s1
   134c0:	115260ef          	jal	ra,39dd4 <ftell>
   134c4:	0005061b          	sext.w	a2,a0
   134c8:	00400793          	li	a5,4
   134cc:	00c13423          	sd	a2,8(sp)
   134d0:	02f60663          	beq	a2,a5,134fc <fwscanf_main+0x5ec>
   134d4:	00042503          	lw	a0,0(s0)
   134d8:	010190ef          	jal	ra,2c4e8 <strerror>
   134dc:	00813603          	ld	a2,8(sp)
   134e0:	00050713          	mv	a4,a0
   134e4:	000555b7          	lui	a1,0x55
   134e8:	00057537          	lui	a0,0x57
   134ec:	00400693          	li	a3,4
   134f0:	78858593          	addi	a1,a1,1928 # 55788 <CSWTCH.18+0x3680>
   134f4:	87050513          	addi	a0,a0,-1936 # 56870 <CSWTCH.18+0x4768>
   134f8:	105140ef          	jal	ra,27dfc <t_printf>
   134fc:	00042023          	sw	zero,0(s0)
   13500:	00048513          	mv	a0,s1
   13504:	051250ef          	jal	ra,38d54 <feof>
   13508:	02050863          	beqz	a0,13538 <fwscanf_main+0x628>
   1350c:	00a13423          	sd	a0,8(sp)
   13510:	00042503          	lw	a0,0(s0)
   13514:	7d5180ef          	jal	ra,2c4e8 <strerror>
   13518:	00813603          	ld	a2,8(sp)
   1351c:	00050713          	mv	a4,a0
   13520:	000565b7          	lui	a1,0x56
   13524:	00057537          	lui	a0,0x57
   13528:	00000693          	li	a3,0
   1352c:	a4858593          	addi	a1,a1,-1464 # 55a48 <CSWTCH.18+0x3940>
   13530:	8a850513          	addi	a0,a0,-1880 # 568a8 <CSWTCH.18+0x47a0>
   13534:	0c9140ef          	jal	ra,27dfc <t_printf>
   13538:	00042023          	sw	zero,0(s0)
   1353c:	00048513          	mv	a0,s1
   13540:	635250ef          	jal	ra,39374 <fgetwc>
   13544:	0005061b          	sext.w	a2,a0
   13548:	02000793          	li	a5,32
   1354c:	00c13423          	sd	a2,8(sp)
   13550:	02f60663          	beq	a2,a5,1357c <fwscanf_main+0x66c>
   13554:	00042503          	lw	a0,0(s0)
   13558:	791180ef          	jal	ra,2c4e8 <strerror>
   1355c:	00813603          	ld	a2,8(sp)
   13560:	00050713          	mv	a4,a0
   13564:	000565b7          	lui	a1,0x56
   13568:	00057537          	lui	a0,0x57
   1356c:	02000693          	li	a3,32
   13570:	6d858593          	addi	a1,a1,1752 # 566d8 <CSWTCH.18+0x45d0>
   13574:	8e050513          	addi	a0,a0,-1824 # 568e0 <CSWTCH.18+0x47d8>
   13578:	085140ef          	jal	ra,27dfc <t_printf>
   1357c:	00048513          	mv	a0,s1
   13580:	08c270ef          	jal	ra,3a60c <rewind>
   13584:	00048513          	mv	a0,s1
   13588:	00042023          	sw	zero,0(s0)
   1358c:	5e9250ef          	jal	ra,39374 <fgetwc>
   13590:	0005061b          	sext.w	a2,a0
   13594:	03000793          	li	a5,48
   13598:	00c13423          	sd	a2,8(sp)
   1359c:	02f60663          	beq	a2,a5,135c8 <fwscanf_main+0x6b8>
   135a0:	00042503          	lw	a0,0(s0)
   135a4:	745180ef          	jal	ra,2c4e8 <strerror>
   135a8:	00813603          	ld	a2,8(sp)
   135ac:	00050713          	mv	a4,a0
   135b0:	000565b7          	lui	a1,0x56
   135b4:	00057537          	lui	a0,0x57
   135b8:	03000693          	li	a3,48
   135bc:	6d858593          	addi	a1,a1,1752 # 566d8 <CSWTCH.18+0x45d0>
   135c0:	91850513          	addi	a0,a0,-1768 # 56918 <CSWTCH.18+0x4810>
   135c4:	039140ef          	jal	ra,27dfc <t_printf>
   135c8:	00042023          	sw	zero,0(s0)
   135cc:	00048513          	mv	a0,s1
   135d0:	5a5250ef          	jal	ra,39374 <fgetwc>
   135d4:	0005061b          	sext.w	a2,a0
   135d8:	07800793          	li	a5,120
   135dc:	00c13423          	sd	a2,8(sp)
   135e0:	02f60663          	beq	a2,a5,1360c <fwscanf_main+0x6fc>
   135e4:	00042503          	lw	a0,0(s0)
   135e8:	701180ef          	jal	ra,2c4e8 <strerror>
   135ec:	00813603          	ld	a2,8(sp)
   135f0:	00050713          	mv	a4,a0
   135f4:	000565b7          	lui	a1,0x56
   135f8:	00057537          	lui	a0,0x57
   135fc:	07800693          	li	a3,120
   13600:	6d858593          	addi	a1,a1,1752 # 566d8 <CSWTCH.18+0x45d0>
   13604:	95050513          	addi	a0,a0,-1712 # 56950 <CSWTCH.18+0x4848>
   13608:	7f4140ef          	jal	ra,27dfc <t_printf>
   1360c:	000575b7          	lui	a1,0x57
   13610:	01410793          	addi	a5,sp,20
   13614:	00042023          	sw	zero,0(s0)
   13618:	02010713          	addi	a4,sp,32
   1361c:	01010693          	addi	a3,sp,16
   13620:	01810613          	addi	a2,sp,24
   13624:	e8058593          	addi	a1,a1,-384 # 56e80 <CSWTCH.18+0x4d78>
   13628:	00048513          	mv	a0,s1
   1362c:	205260ef          	jal	ra,3a030 <fwscanf>
   13630:	00300793          	li	a5,3
   13634:	00a13423          	sd	a0,8(sp)
   13638:	02f50663          	beq	a0,a5,13664 <fwscanf_main+0x754>
   1363c:	00042503          	lw	a0,0(s0)
   13640:	6a9180ef          	jal	ra,2c4e8 <strerror>
   13644:	00813603          	ld	a2,8(sp)
   13648:	00050713          	mv	a4,a0
   1364c:	000575b7          	lui	a1,0x57
   13650:	00057537          	lui	a0,0x57
   13654:	00300693          	li	a3,3
   13658:	98858593          	addi	a1,a1,-1656 # 56988 <CSWTCH.18+0x4880>
   1365c:	9b850513          	addi	a0,a0,-1608 # 569b8 <CSWTCH.18+0x48b0>
   13660:	79c140ef          	jal	ra,27dfc <t_printf>
   13664:	01813787          	fld	fa5,24(sp)
   13668:	8201b707          	fld	fa4,-2016(gp) # a7578 <__SDATA_BEGIN__+0x20>
   1366c:	00042023          	sw	zero,0(s0)
   13670:	a2e7a7d3          	feq.d	a5,fa5,fa4
   13674:	02079c63          	bnez	a5,136ac <fwscanf_main+0x79c>
   13678:	00000513          	li	a0,0
   1367c:	00f13427          	fsd	fa5,8(sp)
   13680:	669180ef          	jal	ra,2c4e8 <strerror>
   13684:	8201b707          	fld	fa4,-2016(gp) # a7578 <__SDATA_BEGIN__+0x20>
   13688:	00813787          	fld	fa5,8(sp)
   1368c:	00050713          	mv	a4,a0
   13690:	e20706d3          	fmv.x.d	a3,fa4
   13694:	e2078653          	fmv.x.d	a2,fa5
   13698:	000565b7          	lui	a1,0x56
   1369c:	00057537          	lui	a0,0x57
   136a0:	b9058593          	addi	a1,a1,-1136 # 55b90 <CSWTCH.18+0x3a88>
   136a4:	9f050513          	addi	a0,a0,-1552 # 569f0 <CSWTCH.18+0x48e8>
   136a8:	754140ef          	jal	ra,27dfc <t_printf>
   136ac:	01012603          	lw	a2,16(sp)
   136b0:	00042023          	sw	zero,0(s0)
   136b4:	00100793          	li	a5,1
   136b8:	00c13423          	sd	a2,8(sp)
   136bc:	02f60663          	beq	a2,a5,136e8 <fwscanf_main+0x7d8>
   136c0:	00000513          	li	a0,0
   136c4:	625180ef          	jal	ra,2c4e8 <strerror>
   136c8:	00813603          	ld	a2,8(sp)
   136cc:	00050713          	mv	a4,a0
   136d0:	000a05b7          	lui	a1,0xa0
   136d4:	00057537          	lui	a0,0x57
   136d8:	00100693          	li	a3,1
   136dc:	a8058593          	addi	a1,a1,-1408 # 9fa80 <messages+0x1d0>
   136e0:	a2850513          	addi	a0,a0,-1496 # 56a28 <CSWTCH.18+0x4920>
   136e4:	718140ef          	jal	ra,27dfc <t_printf>
   136e8:	02014603          	lbu	a2,32(sp)
   136ec:	00042023          	sw	zero,0(s0)
   136f0:	07000793          	li	a5,112
   136f4:	00c13423          	sd	a2,8(sp)
   136f8:	02f60663          	beq	a2,a5,13724 <fwscanf_main+0x814>
   136fc:	00000513          	li	a0,0
   13700:	5e9180ef          	jal	ra,2c4e8 <strerror>
   13704:	00813603          	ld	a2,8(sp)
   13708:	00050713          	mv	a4,a0
   1370c:	000565b7          	lui	a1,0x56
   13710:	00057537          	lui	a0,0x57
   13714:	07000693          	li	a3,112
   13718:	e3858593          	addi	a1,a1,-456 # 55e38 <CSWTCH.18+0x3d30>
   1371c:	a6050513          	addi	a0,a0,-1440 # 56a60 <CSWTCH.18+0x4958>
   13720:	6dc140ef          	jal	ra,27dfc <t_printf>
   13724:	01412603          	lw	a2,20(sp)
   13728:	00042023          	sw	zero,0(s0)
   1372c:	00c00793          	li	a5,12
   13730:	00c13423          	sd	a2,8(sp)
   13734:	02f60663          	beq	a2,a5,13760 <fwscanf_main+0x850>
   13738:	00000513          	li	a0,0
   1373c:	5ad180ef          	jal	ra,2c4e8 <strerror>
   13740:	00813603          	ld	a2,8(sp)
   13744:	00050713          	mv	a4,a0
   13748:	000555b7          	lui	a1,0x55
   1374c:	00057537          	lui	a0,0x57
   13750:	00c00693          	li	a3,12
   13754:	74858593          	addi	a1,a1,1864 # 55748 <CSWTCH.18+0x3640>
   13758:	a9850513          	addi	a0,a0,-1384 # 56a98 <CSWTCH.18+0x4990>
   1375c:	6a0140ef          	jal	ra,27dfc <t_printf>
   13760:	00042023          	sw	zero,0(s0)
   13764:	00048513          	mv	a0,s1
   13768:	66c260ef          	jal	ra,39dd4 <ftell>
   1376c:	0005061b          	sext.w	a2,a0
   13770:	00700793          	li	a5,7
   13774:	00c13423          	sd	a2,8(sp)
   13778:	02f60663          	beq	a2,a5,137a4 <fwscanf_main+0x894>
   1377c:	00042503          	lw	a0,0(s0)
   13780:	569180ef          	jal	ra,2c4e8 <strerror>
   13784:	00813603          	ld	a2,8(sp)
   13788:	00050713          	mv	a4,a0
   1378c:	000555b7          	lui	a1,0x55
   13790:	00057537          	lui	a0,0x57
   13794:	00700693          	li	a3,7
   13798:	78858593          	addi	a1,a1,1928 # 55788 <CSWTCH.18+0x3680>
   1379c:	ad050513          	addi	a0,a0,-1328 # 56ad0 <CSWTCH.18+0x49c8>
   137a0:	65c140ef          	jal	ra,27dfc <t_printf>
   137a4:	00042023          	sw	zero,0(s0)
   137a8:	00048513          	mv	a0,s1
   137ac:	5a8250ef          	jal	ra,38d54 <feof>
   137b0:	02051663          	bnez	a0,137dc <fwscanf_main+0x8cc>
   137b4:	00042503          	lw	a0,0(s0)
   137b8:	531180ef          	jal	ra,2c4e8 <strerror>
   137bc:	00050713          	mv	a4,a0
   137c0:	000555b7          	lui	a1,0x55
   137c4:	00057537          	lui	a0,0x57
   137c8:	00100693          	li	a3,1
   137cc:	00000613          	li	a2,0
   137d0:	7d058593          	addi	a1,a1,2000 # 557d0 <CSWTCH.18+0x36c8>
   137d4:	b0850513          	addi	a0,a0,-1272 # 56b08 <CSWTCH.18+0x4a00>
   137d8:	624140ef          	jal	ra,27dfc <t_printf>
   137dc:	00048513          	mv	a0,s1
   137e0:	4a8250ef          	jal	ra,38c88 <fclose>
   137e4:	805ff06f          	j	12fe8 <fwscanf_main+0xd8>
   137e8:	fff00793          	li	a5,-1
   137ec:	000575b7          	lui	a1,0x57
   137f0:	00f12a23          	sw	a5,20(sp)
   137f4:	00f12823          	sw	a5,16(sp)
   137f8:	02010613          	addi	a2,sp,32
   137fc:	01410793          	addi	a5,sp,20
   13800:	00042023          	sw	zero,0(s0)
   13804:	08810713          	addi	a4,sp,136
   13808:	01010693          	addi	a3,sp,16
   1380c:	f1858593          	addi	a1,a1,-232 # 56f18 <CSWTCH.18+0x4e10>
   13810:	021260ef          	jal	ra,3a030 <fwscanf>
   13814:	00200793          	li	a5,2
   13818:	00050613          	mv	a2,a0
   1381c:	02f50863          	beq	a0,a5,1384c <fwscanf_main+0x93c>
   13820:	00042503          	lw	a0,0(s0)
   13824:	00c13423          	sd	a2,8(sp)
   13828:	4c1180ef          	jal	ra,2c4e8 <strerror>
   1382c:	00813603          	ld	a2,8(sp)
   13830:	00050713          	mv	a4,a0
   13834:	000565b7          	lui	a1,0x56
   13838:	00056537          	lui	a0,0x56
   1383c:	00200693          	li	a3,2
   13840:	53058593          	addi	a1,a1,1328 # 56530 <CSWTCH.18+0x4428>
   13844:	56050513          	addi	a0,a0,1376 # 56560 <CSWTCH.18+0x4458>
   13848:	5b4140ef          	jal	ra,27dfc <t_printf>
   1384c:	00056937          	lui	s2,0x56
   13850:	90090593          	addi	a1,s2,-1792 # 55900 <CSWTCH.18+0x37f8>
   13854:	02010513          	addi	a0,sp,32
   13858:	6692b0ef          	jal	ra,3f6c0 <strcmp>
   1385c:	02050063          	beqz	a0,1387c <fwscanf_main+0x96c>
   13860:	000566b7          	lui	a3,0x56
   13864:	00056537          	lui	a0,0x56
   13868:	90868693          	addi	a3,a3,-1784 # 55908 <CSWTCH.18+0x3800>
   1386c:	90090613          	addi	a2,s2,-1792
   13870:	02010593          	addi	a1,sp,32
   13874:	59850513          	addi	a0,a0,1432 # 56598 <CSWTCH.18+0x4490>
   13878:	584140ef          	jal	ra,27dfc <t_printf>
   1387c:	00056937          	lui	s2,0x56
   13880:	95090593          	addi	a1,s2,-1712 # 55950 <CSWTCH.18+0x3848>
   13884:	08810513          	addi	a0,sp,136
   13888:	6392b0ef          	jal	ra,3f6c0 <strcmp>
   1388c:	02050063          	beqz	a0,138ac <fwscanf_main+0x99c>
   13890:	000566b7          	lui	a3,0x56
   13894:	00056537          	lui	a0,0x56
   13898:	95868693          	addi	a3,a3,-1704 # 55958 <CSWTCH.18+0x3850>
   1389c:	95090613          	addi	a2,s2,-1712
   138a0:	08810593          	addi	a1,sp,136
   138a4:	5c850513          	addi	a0,a0,1480 # 565c8 <CSWTCH.18+0x44c0>
   138a8:	554140ef          	jal	ra,27dfc <t_printf>
   138ac:	01012603          	lw	a2,16(sp)
   138b0:	00042023          	sw	zero,0(s0)
   138b4:	00700793          	li	a5,7
   138b8:	00c13423          	sd	a2,8(sp)
   138bc:	02f60663          	beq	a2,a5,138e8 <fwscanf_main+0x9d8>
   138c0:	00000513          	li	a0,0
   138c4:	425180ef          	jal	ra,2c4e8 <strerror>
   138c8:	00813603          	ld	a2,8(sp)
   138cc:	00050713          	mv	a4,a0
   138d0:	000a05b7          	lui	a1,0xa0
   138d4:	00056537          	lui	a0,0x56
   138d8:	00700693          	li	a3,7
   138dc:	a8058593          	addi	a1,a1,-1408 # 9fa80 <messages+0x1d0>
   138e0:	5f850513          	addi	a0,a0,1528 # 565f8 <CSWTCH.18+0x44f0>
   138e4:	518140ef          	jal	ra,27dfc <t_printf>
   138e8:	01412603          	lw	a2,20(sp)
   138ec:	00042023          	sw	zero,0(s0)
   138f0:	00c00793          	li	a5,12
   138f4:	00c13423          	sd	a2,8(sp)
   138f8:	02f60663          	beq	a2,a5,13924 <fwscanf_main+0xa14>
   138fc:	00000513          	li	a0,0
   13900:	3e9180ef          	jal	ra,2c4e8 <strerror>
   13904:	00813603          	ld	a2,8(sp)
   13908:	00050713          	mv	a4,a0
   1390c:	000555b7          	lui	a1,0x55
   13910:	00056537          	lui	a0,0x56
   13914:	00c00693          	li	a3,12
   13918:	74858593          	addi	a1,a1,1864 # 55748 <CSWTCH.18+0x3640>
   1391c:	63050513          	addi	a0,a0,1584 # 56630 <CSWTCH.18+0x4528>
   13920:	4dc140ef          	jal	ra,27dfc <t_printf>
   13924:	00042023          	sw	zero,0(s0)
   13928:	00048513          	mv	a0,s1
   1392c:	4a8260ef          	jal	ra,39dd4 <ftell>
   13930:	0005061b          	sext.w	a2,a0
   13934:	00c00793          	li	a5,12
   13938:	00c13423          	sd	a2,8(sp)
   1393c:	02f60663          	beq	a2,a5,13968 <fwscanf_main+0xa58>
   13940:	00042503          	lw	a0,0(s0)
   13944:	3a5180ef          	jal	ra,2c4e8 <strerror>
   13948:	00813603          	ld	a2,8(sp)
   1394c:	00050713          	mv	a4,a0
   13950:	000555b7          	lui	a1,0x55
   13954:	00056537          	lui	a0,0x56
   13958:	00c00693          	li	a3,12
   1395c:	78858593          	addi	a1,a1,1928 # 55788 <CSWTCH.18+0x3680>
   13960:	66850513          	addi	a0,a0,1640 # 56668 <CSWTCH.18+0x4560>
   13964:	498140ef          	jal	ra,27dfc <t_printf>
   13968:	00042023          	sw	zero,0(s0)
   1396c:	00048513          	mv	a0,s1
   13970:	3e4250ef          	jal	ra,38d54 <feof>
   13974:	02050863          	beqz	a0,139a4 <fwscanf_main+0xa94>
   13978:	00a13423          	sd	a0,8(sp)
   1397c:	00042503          	lw	a0,0(s0)
   13980:	369180ef          	jal	ra,2c4e8 <strerror>
   13984:	00813603          	ld	a2,8(sp)
   13988:	00050713          	mv	a4,a0
   1398c:	000565b7          	lui	a1,0x56
   13990:	00056537          	lui	a0,0x56
   13994:	00000693          	li	a3,0
   13998:	a4858593          	addi	a1,a1,-1464 # 55a48 <CSWTCH.18+0x3940>
   1399c:	6a050513          	addi	a0,a0,1696 # 566a0 <CSWTCH.18+0x4598>
   139a0:	45c140ef          	jal	ra,27dfc <t_printf>
   139a4:	00042023          	sw	zero,0(s0)
   139a8:	00048513          	mv	a0,s1
   139ac:	1c9250ef          	jal	ra,39374 <fgetwc>
   139b0:	0005061b          	sext.w	a2,a0
   139b4:	07800793          	li	a5,120
   139b8:	00c13423          	sd	a2,8(sp)
   139bc:	02f60663          	beq	a2,a5,139e8 <fwscanf_main+0xad8>
   139c0:	00042503          	lw	a0,0(s0)
   139c4:	325180ef          	jal	ra,2c4e8 <strerror>
   139c8:	00813603          	ld	a2,8(sp)
   139cc:	00050713          	mv	a4,a0
   139d0:	000565b7          	lui	a1,0x56
   139d4:	00056537          	lui	a0,0x56
   139d8:	07800693          	li	a3,120
   139dc:	6d858593          	addi	a1,a1,1752 # 566d8 <CSWTCH.18+0x45d0>
   139e0:	6e850513          	addi	a0,a0,1768 # 566e8 <CSWTCH.18+0x45e0>
   139e4:	418140ef          	jal	ra,27dfc <t_printf>
   139e8:	00048513          	mv	a0,s1
   139ec:	29c250ef          	jal	ra,38c88 <fclose>
   139f0:	db8ff06f          	j	12fa8 <fwscanf_main+0x98>
   139f4:	000575b7          	lui	a1,0x57
   139f8:	fff00793          	li	a5,-1
   139fc:	01010613          	addi	a2,sp,16
   13a00:	00042023          	sw	zero,0(s0)
   13a04:	01410693          	addi	a3,sp,20
   13a08:	f6858593          	addi	a1,a1,-152 # 56f68 <CSWTCH.18+0x4e60>
   13a0c:	00050493          	mv	s1,a0
   13a10:	00f12a23          	sw	a5,20(sp)
   13a14:	00f12823          	sw	a5,16(sp)
   13a18:	618260ef          	jal	ra,3a030 <fwscanf>
   13a1c:	00050613          	mv	a2,a0
   13a20:	02050863          	beqz	a0,13a50 <fwscanf_main+0xb40>
   13a24:	00042503          	lw	a0,0(s0)
   13a28:	00c13423          	sd	a2,8(sp)
   13a2c:	2bd180ef          	jal	ra,2c4e8 <strerror>
   13a30:	00813603          	ld	a2,8(sp)
   13a34:	00050713          	mv	a4,a0
   13a38:	000565b7          	lui	a1,0x56
   13a3c:	00056537          	lui	a0,0x56
   13a40:	00000693          	li	a3,0
   13a44:	3b058593          	addi	a1,a1,944 # 563b0 <CSWTCH.18+0x42a8>
   13a48:	3d050513          	addi	a0,a0,976 # 563d0 <CSWTCH.18+0x42c8>
   13a4c:	3b0140ef          	jal	ra,27dfc <t_printf>
   13a50:	01012603          	lw	a2,16(sp)
   13a54:	00042023          	sw	zero,0(s0)
   13a58:	00600793          	li	a5,6
   13a5c:	00c13423          	sd	a2,8(sp)
   13a60:	02f60663          	beq	a2,a5,13a8c <fwscanf_main+0xb7c>
   13a64:	00000513          	li	a0,0
   13a68:	281180ef          	jal	ra,2c4e8 <strerror>
   13a6c:	00813603          	ld	a2,8(sp)
   13a70:	00050713          	mv	a4,a0
   13a74:	000a05b7          	lui	a1,0xa0
   13a78:	00056537          	lui	a0,0x56
   13a7c:	00600693          	li	a3,6
   13a80:	a8058593          	addi	a1,a1,-1408 # 9fa80 <messages+0x1d0>
   13a84:	40850513          	addi	a0,a0,1032 # 56408 <CSWTCH.18+0x4300>
   13a88:	374140ef          	jal	ra,27dfc <t_printf>
   13a8c:	01412603          	lw	a2,20(sp)
   13a90:	00042023          	sw	zero,0(s0)
   13a94:	00800793          	li	a5,8
   13a98:	00c13423          	sd	a2,8(sp)
   13a9c:	02f60663          	beq	a2,a5,13ac8 <fwscanf_main+0xbb8>
   13aa0:	00000513          	li	a0,0
   13aa4:	245180ef          	jal	ra,2c4e8 <strerror>
   13aa8:	00813603          	ld	a2,8(sp)
   13aac:	00050713          	mv	a4,a0
   13ab0:	000555b7          	lui	a1,0x55
   13ab4:	00056537          	lui	a0,0x56
   13ab8:	00800693          	li	a3,8
   13abc:	74858593          	addi	a1,a1,1864 # 55748 <CSWTCH.18+0x3640>
   13ac0:	44050513          	addi	a0,a0,1088 # 56440 <CSWTCH.18+0x4338>
   13ac4:	338140ef          	jal	ra,27dfc <t_printf>
   13ac8:	00042023          	sw	zero,0(s0)
   13acc:	00048513          	mv	a0,s1
   13ad0:	304260ef          	jal	ra,39dd4 <ftell>
   13ad4:	0005061b          	sext.w	a2,a0
   13ad8:	00800793          	li	a5,8
   13adc:	00c13423          	sd	a2,8(sp)
   13ae0:	02f60663          	beq	a2,a5,13b0c <fwscanf_main+0xbfc>
   13ae4:	00042503          	lw	a0,0(s0)
   13ae8:	201180ef          	jal	ra,2c4e8 <strerror>
   13aec:	00813603          	ld	a2,8(sp)
   13af0:	00050713          	mv	a4,a0
   13af4:	000555b7          	lui	a1,0x55
   13af8:	00056537          	lui	a0,0x56
   13afc:	00800693          	li	a3,8
   13b00:	78858593          	addi	a1,a1,1928 # 55788 <CSWTCH.18+0x3680>
   13b04:	47850513          	addi	a0,a0,1144 # 56478 <CSWTCH.18+0x4370>
   13b08:	2f4140ef          	jal	ra,27dfc <t_printf>
   13b0c:	00042023          	sw	zero,0(s0)
   13b10:	00048513          	mv	a0,s1
   13b14:	240250ef          	jal	ra,38d54 <feof>
   13b18:	02051663          	bnez	a0,13b44 <fwscanf_main+0xc34>
   13b1c:	00042503          	lw	a0,0(s0)
   13b20:	1c9180ef          	jal	ra,2c4e8 <strerror>
   13b24:	00050713          	mv	a4,a0
   13b28:	000555b7          	lui	a1,0x55
   13b2c:	00056537          	lui	a0,0x56
   13b30:	00100693          	li	a3,1
   13b34:	00000613          	li	a2,0
   13b38:	7d058593          	addi	a1,a1,2000 # 557d0 <CSWTCH.18+0x36c8>
   13b3c:	4b050513          	addi	a0,a0,1200 # 564b0 <CSWTCH.18+0x43a8>
   13b40:	2bc140ef          	jal	ra,27dfc <t_printf>
   13b44:	00048513          	mv	a0,s1
   13b48:	140250ef          	jal	ra,38c88 <fclose>
   13b4c:	c1cff06f          	j	12f68 <fwscanf_main+0x58>

0000000000013b50 <iconv_open_main>:
   13b50:	000a1537          	lui	a0,0xa1
   13b54:	f5010113          	addi	sp,sp,-176
   13b58:	72050793          	addi	a5,a0,1824 # a1720 <test_hash.1+0x98>
   13b5c:	00f13423          	sd	a5,8(sp)
   13b60:	72050513          	addi	a0,a0,1824
   13b64:	02810793          	addi	a5,sp,40
   13b68:	00f13823          	sd	a5,16(sp)
   13b6c:	0a113423          	sd	ra,168(sp)
   13b70:	08913c23          	sd	s1,152(sp)
   13b74:	0a813023          	sd	s0,160(sp)
   13b78:	000574b7          	lui	s1,0x57
   13b7c:	5ed2b0ef          	jal	ra,3f968 <strlen>
   13b80:	00a13c23          	sd	a0,24(sp)
   13b84:	f9048593          	addi	a1,s1,-112 # 56f90 <CSWTCH.18+0x4e88>
   13b88:	f9048513          	addi	a0,s1,-112
   13b8c:	088190ef          	jal	ra,2cc14 <iconv_open>
   13b90:	fff00793          	li	a5,-1
   13b94:	00f50c63          	beq	a0,a5,13bac <iconv_open_main+0x5c>
   13b98:	00057537          	lui	a0,0x57
   13b9c:	f9048613          	addi	a2,s1,-112
   13ba0:	f9048593          	addi	a1,s1,-112
   13ba4:	fa050513          	addi	a0,a0,-96 # 56fa0 <CSWTCH.18+0x4e98>
   13ba8:	254140ef          	jal	ra,27dfc <t_printf>
   13bac:	0e5180ef          	jal	ra,2c490 <__errno_location>
   13bb0:	00050413          	mv	s0,a0
   13bb4:	00052503          	lw	a0,0(a0)
   13bb8:	01600793          	li	a5,22
   13bbc:	02f50063          	beq	a0,a5,13bdc <iconv_open_main+0x8c>
   13bc0:	129180ef          	jal	ra,2c4e8 <strerror>
   13bc4:	00050693          	mv	a3,a0
   13bc8:	00057537          	lui	a0,0x57
   13bcc:	f9048613          	addi	a2,s1,-112
   13bd0:	f9048593          	addi	a1,s1,-112
   13bd4:	fe850513          	addi	a0,a0,-24 # 56fe8 <CSWTCH.18+0x4ee0>
   13bd8:	224140ef          	jal	ra,27dfc <t_printf>
   13bdc:	00052537          	lui	a0,0x52
   13be0:	1e850593          	addi	a1,a0,488 # 521e8 <CSWTCH.18+0xe0>
   13be4:	00042023          	sw	zero,0(s0)
   13be8:	1e850513          	addi	a0,a0,488
   13bec:	028190ef          	jal	ra,2cc14 <iconv_open>
   13bf0:	fff00793          	li	a5,-1
   13bf4:	00050493          	mv	s1,a0
   13bf8:	00f51e63          	bne	a0,a5,13c14 <iconv_open_main+0xc4>
   13bfc:	00042503          	lw	a0,0(s0)
   13c00:	0e9180ef          	jal	ra,2c4e8 <strerror>
   13c04:	00050593          	mv	a1,a0
   13c08:	00057537          	lui	a0,0x57
   13c0c:	04050513          	addi	a0,a0,64 # 57040 <CSWTCH.18+0x4f38>
   13c10:	1ec140ef          	jal	ra,27dfc <t_printf>
   13c14:	00042023          	sw	zero,0(s0)
   13c18:	02010713          	addi	a4,sp,32
   13c1c:	01010693          	addi	a3,sp,16
   13c20:	01810613          	addi	a2,sp,24
   13c24:	00810593          	addi	a1,sp,8
   13c28:	00048513          	mv	a0,s1
   13c2c:	02013023          	sd	zero,32(sp)
   13c30:	0ac190ef          	jal	ra,2ccdc <iconv>
   13c34:	fff00793          	li	a5,-1
   13c38:	00f50863          	beq	a0,a5,13c48 <iconv_open_main+0xf8>
   13c3c:	00057537          	lui	a0,0x57
   13c40:	08050513          	addi	a0,a0,128 # 57080 <CSWTCH.18+0x4f78>
   13c44:	1b8140ef          	jal	ra,27dfc <t_printf>
   13c48:	00042503          	lw	a0,0(s0)
   13c4c:	00700793          	li	a5,7
   13c50:	00f50c63          	beq	a0,a5,13c68 <iconv_open_main+0x118>
   13c54:	095180ef          	jal	ra,2c4e8 <strerror>
   13c58:	00050593          	mv	a1,a0
   13c5c:	00057537          	lui	a0,0x57
   13c60:	0d050513          	addi	a0,a0,208 # 570d0 <CSWTCH.18+0x4fc8>
   13c64:	198140ef          	jal	ra,27dfc <t_printf>
   13c68:	06400793          	li	a5,100
   13c6c:	00810593          	addi	a1,sp,8
   13c70:	00042023          	sw	zero,0(s0)
   13c74:	02010713          	addi	a4,sp,32
   13c78:	01010693          	addi	a3,sp,16
   13c7c:	01810613          	addi	a2,sp,24
   13c80:	00048513          	mv	a0,s1
   13c84:	02f13023          	sd	a5,32(sp)
   13c88:	054190ef          	jal	ra,2ccdc <iconv>
   13c8c:	00050593          	mv	a1,a0
   13c90:	00050863          	beqz	a0,13ca0 <iconv_open_main+0x150>
   13c94:	00057537          	lui	a0,0x57
   13c98:	12050513          	addi	a0,a0,288 # 57120 <CSWTCH.18+0x5018>
   13c9c:	160140ef          	jal	ra,27dfc <t_printf>
   13ca0:	00042503          	lw	a0,0(s0)
   13ca4:	00050c63          	beqz	a0,13cbc <iconv_open_main+0x16c>
   13ca8:	041180ef          	jal	ra,2c4e8 <strerror>
   13cac:	00050593          	mv	a1,a0
   13cb0:	00057537          	lui	a0,0x57
   13cb4:	18050513          	addi	a0,a0,384 # 57180 <CSWTCH.18+0x5078>
   13cb8:	144140ef          	jal	ra,27dfc <t_printf>
   13cbc:	00048513          	mv	a0,s1
   13cc0:	7fd190ef          	jal	ra,2dcbc <iconv_close>
   13cc4:	fff00793          	li	a5,-1
   13cc8:	00f51e63          	bne	a0,a5,13ce4 <iconv_open_main+0x194>
   13ccc:	00042503          	lw	a0,0(s0)
   13cd0:	019180ef          	jal	ra,2c4e8 <strerror>
   13cd4:	00050593          	mv	a1,a0
   13cd8:	00057537          	lui	a0,0x57
   13cdc:	1b850513          	addi	a0,a0,440 # 571b8 <CSWTCH.18+0x50b0>
   13ce0:	11c140ef          	jal	ra,27dfc <t_printf>
   13ce4:	bb01a503          	lw	a0,-1104(gp) # a7908 <t_status>
   13ce8:	0a813083          	ld	ra,168(sp)
   13cec:	0a013403          	ld	s0,160(sp)
   13cf0:	09813483          	ld	s1,152(sp)
   13cf4:	0005051b          	sext.w	a0,a0
   13cf8:	0b010113          	addi	sp,sp,176
   13cfc:	00008067          	ret

0000000000013d00 <inet_pton_main>:
   13d00:	f5010113          	addi	sp,sp,-176
   13d04:	08913c23          	sd	s1,152(sp)
   13d08:	00003537          	lui	a0,0x3
   13d0c:	0006f4b7          	lui	s1,0x6f
   13d10:	00000613          	li	a2,0
   13d14:	d4848593          	addi	a1,s1,-696 # 6ed48 <t+0x1758>
   13d18:	03950513          	addi	a0,a0,57 # 3039 <c1+0x3023>
   13d1c:	0a113423          	sd	ra,168(sp)
   13d20:	0a813023          	sd	s0,160(sp)
   13d24:	09213823          	sd	s2,144(sp)
   13d28:	09313423          	sd	s3,136(sp)
   13d2c:	40c1d0ef          	jal	ra,31138 <inet_pton>
   13d30:	00050913          	mv	s2,a0
   13d34:	75c180ef          	jal	ra,2c490 <__errno_location>
   13d38:	fff00793          	li	a5,-1
   13d3c:	00050413          	mv	s0,a0
   13d40:	00f91863          	bne	s2,a5,13d50 <inet_pton_main+0x50>
   13d44:	00052703          	lw	a4,0(a0)
   13d48:	06100793          	li	a5,97
   13d4c:	00f70e63          	beq	a4,a5,13d68 <inet_pton_main+0x68>
   13d50:	00042503          	lw	a0,0(s0)
   13d54:	794180ef          	jal	ra,2c4e8 <strerror>
   13d58:	00050593          	mv	a1,a0
   13d5c:	00057537          	lui	a0,0x57
   13d60:	1f850513          	addi	a0,a0,504 # 571f8 <CSWTCH.18+0x50f0>
   13d64:	098140ef          	jal	ra,27dfc <t_printf>
   13d68:	000575b7          	lui	a1,0x57
   13d6c:	00042023          	sw	zero,0(s0)
   13d70:	00000693          	li	a3,0
   13d74:	d4848613          	addi	a2,s1,-696
   13d78:	25858593          	addi	a1,a1,600 # 57258 <CSWTCH.18+0x5150>
   13d7c:	00200513          	li	a0,2
   13d80:	1381d0ef          	jal	ra,30eb8 <inet_ntop>
   13d84:	00051863          	bnez	a0,13d94 <inet_pton_main+0x94>
   13d88:	00042703          	lw	a4,0(s0)
   13d8c:	01c00793          	li	a5,28
   13d90:	00f70e63          	beq	a4,a5,13dac <inet_pton_main+0xac>
   13d94:	00042503          	lw	a0,0(s0)
   13d98:	750180ef          	jal	ra,2c4e8 <strerror>
   13d9c:	00050593          	mv	a1,a0
   13da0:	00057537          	lui	a0,0x57
   13da4:	26050513          	addi	a0,a0,608 # 57260 <CSWTCH.18+0x5158>
   13da8:	054140ef          	jal	ra,27dfc <t_printf>
   13dac:	000574b7          	lui	s1,0x57
   13db0:	00042023          	sw	zero,0(s0)
   13db4:	2b848513          	addi	a0,s1,696 # 572b8 <CSWTCH.18+0x51b0>
   13db8:	04010413          	addi	s0,sp,64
   13dbc:	04013023          	sd	zero,64(sp)
   13dc0:	04013423          	sd	zero,72(sp)
   13dc4:	04012823          	sw	zero,80(sp)
   13dc8:	7191c0ef          	jal	ra,30ce0 <inet_addr>
   13dcc:	00a12c23          	sw	a0,24(sp)
   13dd0:	01810593          	addi	a1,sp,24
   13dd4:	00040513          	mv	a0,s0
   13dd8:	00400613          	li	a2,4
   13ddc:	051140ef          	jal	ra,2862c <tohex>
   13de0:	00059937          	lui	s2,0x59
   13de4:	85090593          	addi	a1,s2,-1968 # 58850 <CSWTCH.18+0x6748>
   13de8:	00040513          	mv	a0,s0
   13dec:	0d52b0ef          	jal	ra,3f6c0 <strcmp>
   13df0:	00050c63          	beqz	a0,13e08 <inet_pton_main+0x108>
   13df4:	00057537          	lui	a0,0x57
   13df8:	85090613          	addi	a2,s2,-1968
   13dfc:	00040593          	mv	a1,s0
   13e00:	2c050513          	addi	a0,a0,704 # 572c0 <CSWTCH.18+0x51b8>
   13e04:	7f9130ef          	jal	ra,27dfc <t_printf>
   13e08:	2b848593          	addi	a1,s1,696
   13e0c:	01810613          	addi	a2,sp,24
   13e10:	00200513          	li	a0,2
   13e14:	3241d0ef          	jal	ra,31138 <inet_pton>
   13e18:	00100793          	li	a5,1
   13e1c:	00050593          	mv	a1,a0
   13e20:	00f50a63          	beq	a0,a5,13e34 <inet_pton_main+0x134>
   13e24:	00057537          	lui	a0,0x57
   13e28:	00100613          	li	a2,1
   13e2c:	31050513          	addi	a0,a0,784 # 57310 <CSWTCH.18+0x5208>
   13e30:	7cd130ef          	jal	ra,27dfc <t_printf>
   13e34:	01810593          	addi	a1,sp,24
   13e38:	00040513          	mv	a0,s0
   13e3c:	00400613          	li	a2,4
   13e40:	7ec140ef          	jal	ra,2862c <tohex>
   13e44:	85090593          	addi	a1,s2,-1968
   13e48:	00040513          	mv	a0,s0
   13e4c:	0752b0ef          	jal	ra,3f6c0 <strcmp>
   13e50:	00050c63          	beqz	a0,13e68 <inet_pton_main+0x168>
   13e54:	00057537          	lui	a0,0x57
   13e58:	85090613          	addi	a2,s2,-1968
   13e5c:	00040593          	mv	a1,s0
   13e60:	37050513          	addi	a0,a0,880 # 57370 <CSWTCH.18+0x5268>
   13e64:	799130ef          	jal	ra,27dfc <t_printf>
   13e68:	85090593          	addi	a1,s2,-1968
   13e6c:	01810513          	addi	a0,sp,24
   13e70:	031140ef          	jal	ra,286a0 <tobin>
   13e74:	01400693          	li	a3,20
   13e78:	00040613          	mv	a2,s0
   13e7c:	01810593          	addi	a1,sp,24
   13e80:	00200513          	li	a0,2
   13e84:	0341d0ef          	jal	ra,30eb8 <inet_ntop>
   13e88:	00a40863          	beq	s0,a0,13e98 <inet_pton_main+0x198>
   13e8c:	00057537          	lui	a0,0x57
   13e90:	3d050513          	addi	a0,a0,976 # 573d0 <CSWTCH.18+0x52c8>
   13e94:	769130ef          	jal	ra,27dfc <t_printf>
   13e98:	2b848593          	addi	a1,s1,696
   13e9c:	00040513          	mv	a0,s0
   13ea0:	0212b0ef          	jal	ra,3f6c0 <strcmp>
   13ea4:	00050c63          	beqz	a0,13ebc <inet_pton_main+0x1bc>
   13ea8:	00057537          	lui	a0,0x57
   13eac:	2b848613          	addi	a2,s1,696
   13eb0:	00040593          	mv	a1,s0
   13eb4:	43050513          	addi	a0,a0,1072 # 57430 <CSWTCH.18+0x5328>
   13eb8:	745130ef          	jal	ra,27dfc <t_printf>
   13ebc:	01812503          	lw	a0,24(sp)
   13ec0:	7a91c0ef          	jal	ra,30e68 <inet_ntoa>
   13ec4:	2b848593          	addi	a1,s1,696
   13ec8:	00050913          	mv	s2,a0
   13ecc:	7f42b0ef          	jal	ra,3f6c0 <strcmp>
   13ed0:	00050c63          	beqz	a0,13ee8 <inet_pton_main+0x1e8>
   13ed4:	00057537          	lui	a0,0x57
   13ed8:	2b848613          	addi	a2,s1,696
   13edc:	00090593          	mv	a1,s2
   13ee0:	49050513          	addi	a0,a0,1168 # 57490 <CSWTCH.18+0x5388>
   13ee4:	719130ef          	jal	ra,27dfc <t_printf>
   13ee8:	000574b7          	lui	s1,0x57
   13eec:	4e048513          	addi	a0,s1,1248 # 574e0 <CSWTCH.18+0x53d8>
   13ef0:	04013023          	sd	zero,64(sp)
   13ef4:	04013423          	sd	zero,72(sp)
   13ef8:	04012823          	sw	zero,80(sp)
   13efc:	5e51c0ef          	jal	ra,30ce0 <inet_addr>
   13f00:	00a12c23          	sw	a0,24(sp)
   13f04:	01810593          	addi	a1,sp,24
   13f08:	00040513          	mv	a0,s0
   13f0c:	00400613          	li	a2,4
   13f10:	71c140ef          	jal	ra,2862c <tohex>
   13f14:	00057937          	lui	s2,0x57
   13f18:	4f090593          	addi	a1,s2,1264 # 574f0 <CSWTCH.18+0x53e8>
   13f1c:	00040513          	mv	a0,s0
   13f20:	7a02b0ef          	jal	ra,3f6c0 <strcmp>
   13f24:	00050c63          	beqz	a0,13f3c <inet_pton_main+0x23c>
   13f28:	00057537          	lui	a0,0x57
   13f2c:	4f090613          	addi	a2,s2,1264
   13f30:	00040593          	mv	a1,s0
   13f34:	50050513          	addi	a0,a0,1280 # 57500 <CSWTCH.18+0x53f8>
   13f38:	6c5130ef          	jal	ra,27dfc <t_printf>
   13f3c:	4e048593          	addi	a1,s1,1248
   13f40:	01810613          	addi	a2,sp,24
   13f44:	00200513          	li	a0,2
   13f48:	1f01d0ef          	jal	ra,31138 <inet_pton>
   13f4c:	00100793          	li	a5,1
   13f50:	00050593          	mv	a1,a0
   13f54:	00f50a63          	beq	a0,a5,13f68 <inet_pton_main+0x268>
   13f58:	00057537          	lui	a0,0x57
   13f5c:	00100613          	li	a2,1
   13f60:	55050513          	addi	a0,a0,1360 # 57550 <CSWTCH.18+0x5448>
   13f64:	699130ef          	jal	ra,27dfc <t_printf>
   13f68:	01810593          	addi	a1,sp,24
   13f6c:	00040513          	mv	a0,s0
   13f70:	00400613          	li	a2,4
   13f74:	6b8140ef          	jal	ra,2862c <tohex>
   13f78:	4f090593          	addi	a1,s2,1264
   13f7c:	00040513          	mv	a0,s0
   13f80:	7402b0ef          	jal	ra,3f6c0 <strcmp>
   13f84:	00050c63          	beqz	a0,13f9c <inet_pton_main+0x29c>
   13f88:	00057537          	lui	a0,0x57
   13f8c:	4f090613          	addi	a2,s2,1264
   13f90:	00040593          	mv	a1,s0
   13f94:	5b050513          	addi	a0,a0,1456 # 575b0 <CSWTCH.18+0x54a8>
   13f98:	665130ef          	jal	ra,27dfc <t_printf>
   13f9c:	4f090593          	addi	a1,s2,1264
   13fa0:	01810513          	addi	a0,sp,24
   13fa4:	6fc140ef          	jal	ra,286a0 <tobin>
   13fa8:	01400693          	li	a3,20
   13fac:	00040613          	mv	a2,s0
   13fb0:	01810593          	addi	a1,sp,24
   13fb4:	00200513          	li	a0,2
   13fb8:	7011c0ef          	jal	ra,30eb8 <inet_ntop>
   13fbc:	00a40863          	beq	s0,a0,13fcc <inet_pton_main+0x2cc>
   13fc0:	00057537          	lui	a0,0x57
   13fc4:	61050513          	addi	a0,a0,1552 # 57610 <CSWTCH.18+0x5508>
   13fc8:	635130ef          	jal	ra,27dfc <t_printf>
   13fcc:	4e048593          	addi	a1,s1,1248
   13fd0:	00040513          	mv	a0,s0
   13fd4:	6ec2b0ef          	jal	ra,3f6c0 <strcmp>
   13fd8:	00050c63          	beqz	a0,13ff0 <inet_pton_main+0x2f0>
   13fdc:	00057537          	lui	a0,0x57
   13fe0:	4e048613          	addi	a2,s1,1248
   13fe4:	00040593          	mv	a1,s0
   13fe8:	67050513          	addi	a0,a0,1648 # 57670 <CSWTCH.18+0x5568>
   13fec:	611130ef          	jal	ra,27dfc <t_printf>
   13ff0:	01812503          	lw	a0,24(sp)
   13ff4:	6751c0ef          	jal	ra,30e68 <inet_ntoa>
   13ff8:	4e048593          	addi	a1,s1,1248
   13ffc:	00050913          	mv	s2,a0
   14000:	6c02b0ef          	jal	ra,3f6c0 <strcmp>
   14004:	00050c63          	beqz	a0,1401c <inet_pton_main+0x31c>
   14008:	00057537          	lui	a0,0x57
   1400c:	4e048613          	addi	a2,s1,1248
   14010:	00090593          	mv	a1,s2
   14014:	6d050513          	addi	a0,a0,1744 # 576d0 <CSWTCH.18+0x55c8>
   14018:	5e5130ef          	jal	ra,27dfc <t_printf>
   1401c:	000574b7          	lui	s1,0x57
   14020:	72048513          	addi	a0,s1,1824 # 57720 <CSWTCH.18+0x5618>
   14024:	04013023          	sd	zero,64(sp)
   14028:	04013423          	sd	zero,72(sp)
   1402c:	04012823          	sw	zero,80(sp)
   14030:	4b11c0ef          	jal	ra,30ce0 <inet_addr>
   14034:	00a12c23          	sw	a0,24(sp)
   14038:	01810593          	addi	a1,sp,24
   1403c:	00040513          	mv	a0,s0
   14040:	00400613          	li	a2,4
   14044:	5e8140ef          	jal	ra,2862c <tohex>
   14048:	00057937          	lui	s2,0x57
   1404c:	73090593          	addi	a1,s2,1840 # 57730 <CSWTCH.18+0x5628>
   14050:	00040513          	mv	a0,s0
   14054:	66c2b0ef          	jal	ra,3f6c0 <strcmp>
   14058:	00050c63          	beqz	a0,14070 <inet_pton_main+0x370>
   1405c:	00057537          	lui	a0,0x57
   14060:	73090613          	addi	a2,s2,1840
   14064:	00040593          	mv	a1,s0
   14068:	74050513          	addi	a0,a0,1856 # 57740 <CSWTCH.18+0x5638>
   1406c:	591130ef          	jal	ra,27dfc <t_printf>
   14070:	72048593          	addi	a1,s1,1824
   14074:	01810613          	addi	a2,sp,24
   14078:	00200513          	li	a0,2
   1407c:	0bc1d0ef          	jal	ra,31138 <inet_pton>
   14080:	00100793          	li	a5,1
   14084:	00050593          	mv	a1,a0
   14088:	00f50a63          	beq	a0,a5,1409c <inet_pton_main+0x39c>
   1408c:	00057537          	lui	a0,0x57
   14090:	00100613          	li	a2,1
   14094:	79050513          	addi	a0,a0,1936 # 57790 <CSWTCH.18+0x5688>
   14098:	565130ef          	jal	ra,27dfc <t_printf>
   1409c:	01810593          	addi	a1,sp,24
   140a0:	00040513          	mv	a0,s0
   140a4:	00400613          	li	a2,4
   140a8:	584140ef          	jal	ra,2862c <tohex>
   140ac:	73090593          	addi	a1,s2,1840
   140b0:	00040513          	mv	a0,s0
   140b4:	60c2b0ef          	jal	ra,3f6c0 <strcmp>
   140b8:	00050c63          	beqz	a0,140d0 <inet_pton_main+0x3d0>
   140bc:	00057537          	lui	a0,0x57
   140c0:	73090613          	addi	a2,s2,1840
   140c4:	00040593          	mv	a1,s0
   140c8:	7f050513          	addi	a0,a0,2032 # 577f0 <CSWTCH.18+0x56e8>
   140cc:	531130ef          	jal	ra,27dfc <t_printf>
   140d0:	73090593          	addi	a1,s2,1840
   140d4:	01810513          	addi	a0,sp,24
   140d8:	5c8140ef          	jal	ra,286a0 <tobin>
   140dc:	01400693          	li	a3,20
   140e0:	00040613          	mv	a2,s0
   140e4:	01810593          	addi	a1,sp,24
   140e8:	00200513          	li	a0,2
   140ec:	5cd1c0ef          	jal	ra,30eb8 <inet_ntop>
   140f0:	00a40863          	beq	s0,a0,14100 <inet_pton_main+0x400>
   140f4:	00058537          	lui	a0,0x58
   140f8:	85050513          	addi	a0,a0,-1968 # 57850 <CSWTCH.18+0x5748>
   140fc:	501130ef          	jal	ra,27dfc <t_printf>
   14100:	72048593          	addi	a1,s1,1824
   14104:	00040513          	mv	a0,s0
   14108:	5b82b0ef          	jal	ra,3f6c0 <strcmp>
   1410c:	00050c63          	beqz	a0,14124 <inet_pton_main+0x424>
   14110:	00058537          	lui	a0,0x58
   14114:	72048613          	addi	a2,s1,1824
   14118:	00040593          	mv	a1,s0
   1411c:	8b050513          	addi	a0,a0,-1872 # 578b0 <CSWTCH.18+0x57a8>
   14120:	4dd130ef          	jal	ra,27dfc <t_printf>
   14124:	01812503          	lw	a0,24(sp)
   14128:	5411c0ef          	jal	ra,30e68 <inet_ntoa>
   1412c:	72048593          	addi	a1,s1,1824
   14130:	00050913          	mv	s2,a0
   14134:	58c2b0ef          	jal	ra,3f6c0 <strcmp>
   14138:	00050c63          	beqz	a0,14150 <inet_pton_main+0x450>
   1413c:	00058537          	lui	a0,0x58
   14140:	72048613          	addi	a2,s1,1824
   14144:	00090593          	mv	a1,s2
   14148:	91050513          	addi	a0,a0,-1776 # 57910 <CSWTCH.18+0x5808>
   1414c:	4b1130ef          	jal	ra,27dfc <t_printf>
   14150:	00058937          	lui	s2,0x58
   14154:	96090513          	addi	a0,s2,-1696 # 57960 <CSWTCH.18+0x5858>
   14158:	04013023          	sd	zero,64(sp)
   1415c:	04013423          	sd	zero,72(sp)
   14160:	04012823          	sw	zero,80(sp)
   14164:	37d1c0ef          	jal	ra,30ce0 <inet_addr>
   14168:	00a12c23          	sw	a0,24(sp)
   1416c:	01810593          	addi	a1,sp,24
   14170:	00040513          	mv	a0,s0
   14174:	00400613          	li	a2,4
   14178:	4b4140ef          	jal	ra,2862c <tohex>
   1417c:	000584b7          	lui	s1,0x58
   14180:	97048593          	addi	a1,s1,-1680 # 57970 <CSWTCH.18+0x5868>
   14184:	00040513          	mv	a0,s0
   14188:	5382b0ef          	jal	ra,3f6c0 <strcmp>
   1418c:	00050c63          	beqz	a0,141a4 <inet_pton_main+0x4a4>
   14190:	00058537          	lui	a0,0x58
   14194:	97048613          	addi	a2,s1,-1680
   14198:	00040593          	mv	a1,s0
   1419c:	98050513          	addi	a0,a0,-1664 # 57980 <CSWTCH.18+0x5878>
   141a0:	45d130ef          	jal	ra,27dfc <t_printf>
   141a4:	96090593          	addi	a1,s2,-1696
   141a8:	01810613          	addi	a2,sp,24
   141ac:	00200513          	li	a0,2
   141b0:	7891c0ef          	jal	ra,31138 <inet_pton>
   141b4:	00100793          	li	a5,1
   141b8:	00050593          	mv	a1,a0
   141bc:	00f50a63          	beq	a0,a5,141d0 <inet_pton_main+0x4d0>
   141c0:	00058537          	lui	a0,0x58
   141c4:	00100613          	li	a2,1
   141c8:	9d850513          	addi	a0,a0,-1576 # 579d8 <CSWTCH.18+0x58d0>
   141cc:	431130ef          	jal	ra,27dfc <t_printf>
   141d0:	01810593          	addi	a1,sp,24
   141d4:	00040513          	mv	a0,s0
   141d8:	00400613          	li	a2,4
   141dc:	450140ef          	jal	ra,2862c <tohex>
   141e0:	97048593          	addi	a1,s1,-1680
   141e4:	00040513          	mv	a0,s0
   141e8:	4d82b0ef          	jal	ra,3f6c0 <strcmp>
   141ec:	00050c63          	beqz	a0,14204 <inet_pton_main+0x504>
   141f0:	00058537          	lui	a0,0x58
   141f4:	97048613          	addi	a2,s1,-1680
   141f8:	00040593          	mv	a1,s0
   141fc:	a4050513          	addi	a0,a0,-1472 # 57a40 <CSWTCH.18+0x5938>
   14200:	3fd130ef          	jal	ra,27dfc <t_printf>
   14204:	97048593          	addi	a1,s1,-1680
   14208:	01810513          	addi	a0,sp,24
   1420c:	494140ef          	jal	ra,286a0 <tobin>
   14210:	01400693          	li	a3,20
   14214:	00040613          	mv	a2,s0
   14218:	01810593          	addi	a1,sp,24
   1421c:	00200513          	li	a0,2
   14220:	4991c0ef          	jal	ra,30eb8 <inet_ntop>
   14224:	00a40863          	beq	s0,a0,14234 <inet_pton_main+0x534>
   14228:	00058537          	lui	a0,0x58
   1422c:	aa850513          	addi	a0,a0,-1368 # 57aa8 <CSWTCH.18+0x59a0>
   14230:	3cd130ef          	jal	ra,27dfc <t_printf>
   14234:	96090593          	addi	a1,s2,-1696
   14238:	00040513          	mv	a0,s0
   1423c:	4842b0ef          	jal	ra,3f6c0 <strcmp>
   14240:	00050c63          	beqz	a0,14258 <inet_pton_main+0x558>
   14244:	00058537          	lui	a0,0x58
   14248:	96090613          	addi	a2,s2,-1696
   1424c:	00040593          	mv	a1,s0
   14250:	b0850513          	addi	a0,a0,-1272 # 57b08 <CSWTCH.18+0x5a00>
   14254:	3a9130ef          	jal	ra,27dfc <t_printf>
   14258:	01812503          	lw	a0,24(sp)
   1425c:	40d1c0ef          	jal	ra,30e68 <inet_ntoa>
   14260:	96090593          	addi	a1,s2,-1696
   14264:	00050993          	mv	s3,a0
   14268:	4582b0ef          	jal	ra,3f6c0 <strcmp>
   1426c:	00050c63          	beqz	a0,14284 <inet_pton_main+0x584>
   14270:	00058537          	lui	a0,0x58
   14274:	96090613          	addi	a2,s2,-1696
   14278:	00098593          	mv	a1,s3
   1427c:	b6850513          	addi	a0,a0,-1176 # 57b68 <CSWTCH.18+0x5a60>
   14280:	37d130ef          	jal	ra,27dfc <t_printf>
   14284:	00058937          	lui	s2,0x58
   14288:	bb890513          	addi	a0,s2,-1096 # 57bb8 <CSWTCH.18+0x5ab0>
   1428c:	04013023          	sd	zero,64(sp)
   14290:	04013423          	sd	zero,72(sp)
   14294:	04012823          	sw	zero,80(sp)
   14298:	2491c0ef          	jal	ra,30ce0 <inet_addr>
   1429c:	00a12c23          	sw	a0,24(sp)
   142a0:	01810593          	addi	a1,sp,24
   142a4:	00040513          	mv	a0,s0
   142a8:	00400613          	li	a2,4
   142ac:	380140ef          	jal	ra,2862c <tohex>
   142b0:	000589b7          	lui	s3,0x58
   142b4:	bc898593          	addi	a1,s3,-1080 # 57bc8 <CSWTCH.18+0x5ac0>
   142b8:	00040513          	mv	a0,s0
   142bc:	4042b0ef          	jal	ra,3f6c0 <strcmp>
   142c0:	00050c63          	beqz	a0,142d8 <inet_pton_main+0x5d8>
   142c4:	00058537          	lui	a0,0x58
   142c8:	bc898613          	addi	a2,s3,-1080
   142cc:	00040593          	mv	a1,s0
   142d0:	bd850513          	addi	a0,a0,-1064 # 57bd8 <CSWTCH.18+0x5ad0>
   142d4:	329130ef          	jal	ra,27dfc <t_printf>
   142d8:	bb890593          	addi	a1,s2,-1096
   142dc:	01810613          	addi	a2,sp,24
   142e0:	00200513          	li	a0,2
   142e4:	6551c0ef          	jal	ra,31138 <inet_pton>
   142e8:	00050593          	mv	a1,a0
   142ec:	00050a63          	beqz	a0,14300 <inet_pton_main+0x600>
   142f0:	00058537          	lui	a0,0x58
   142f4:	00000613          	li	a2,0
   142f8:	c2850513          	addi	a0,a0,-984 # 57c28 <CSWTCH.18+0x5b20>
   142fc:	301130ef          	jal	ra,27dfc <t_printf>
   14300:	00058937          	lui	s2,0x58
   14304:	c8890513          	addi	a0,s2,-888 # 57c88 <CSWTCH.18+0x5b80>
   14308:	04013023          	sd	zero,64(sp)
   1430c:	04013423          	sd	zero,72(sp)
   14310:	04012823          	sw	zero,80(sp)
   14314:	1cd1c0ef          	jal	ra,30ce0 <inet_addr>
   14318:	00a12c23          	sw	a0,24(sp)
   1431c:	01810593          	addi	a1,sp,24
   14320:	00040513          	mv	a0,s0
   14324:	00400613          	li	a2,4
   14328:	304140ef          	jal	ra,2862c <tohex>
   1432c:	000589b7          	lui	s3,0x58
   14330:	c9898593          	addi	a1,s3,-872 # 57c98 <CSWTCH.18+0x5b90>
   14334:	00040513          	mv	a0,s0
   14338:	3882b0ef          	jal	ra,3f6c0 <strcmp>
   1433c:	00050c63          	beqz	a0,14354 <inet_pton_main+0x654>
   14340:	00058537          	lui	a0,0x58
   14344:	c9898613          	addi	a2,s3,-872
   14348:	00040593          	mv	a1,s0
   1434c:	ca850513          	addi	a0,a0,-856 # 57ca8 <CSWTCH.18+0x5ba0>
   14350:	2ad130ef          	jal	ra,27dfc <t_printf>
   14354:	c8890593          	addi	a1,s2,-888
   14358:	01810613          	addi	a2,sp,24
   1435c:	00200513          	li	a0,2
   14360:	5d91c0ef          	jal	ra,31138 <inet_pton>
   14364:	00050593          	mv	a1,a0
   14368:	00050a63          	beqz	a0,1437c <inet_pton_main+0x67c>
   1436c:	00058537          	lui	a0,0x58
   14370:	00000613          	li	a2,0
   14374:	cf850513          	addi	a0,a0,-776 # 57cf8 <CSWTCH.18+0x5bf0>
   14378:	285130ef          	jal	ra,27dfc <t_printf>
   1437c:	00058937          	lui	s2,0x58
   14380:	d5890513          	addi	a0,s2,-680 # 57d58 <CSWTCH.18+0x5c50>
   14384:	04013023          	sd	zero,64(sp)
   14388:	04013423          	sd	zero,72(sp)
   1438c:	04012823          	sw	zero,80(sp)
   14390:	1511c0ef          	jal	ra,30ce0 <inet_addr>
   14394:	00a12c23          	sw	a0,24(sp)
   14398:	01810593          	addi	a1,sp,24
   1439c:	00040513          	mv	a0,s0
   143a0:	00400613          	li	a2,4
   143a4:	288140ef          	jal	ra,2862c <tohex>
   143a8:	000589b7          	lui	s3,0x58
   143ac:	d6898593          	addi	a1,s3,-664 # 57d68 <CSWTCH.18+0x5c60>
   143b0:	00040513          	mv	a0,s0
   143b4:	30c2b0ef          	jal	ra,3f6c0 <strcmp>
   143b8:	00050c63          	beqz	a0,143d0 <inet_pton_main+0x6d0>
   143bc:	00058537          	lui	a0,0x58
   143c0:	d6898613          	addi	a2,s3,-664
   143c4:	00040593          	mv	a1,s0
   143c8:	d7850513          	addi	a0,a0,-648 # 57d78 <CSWTCH.18+0x5c70>
   143cc:	231130ef          	jal	ra,27dfc <t_printf>
   143d0:	d5890593          	addi	a1,s2,-680
   143d4:	01810613          	addi	a2,sp,24
   143d8:	00200513          	li	a0,2
   143dc:	55d1c0ef          	jal	ra,31138 <inet_pton>
   143e0:	00050593          	mv	a1,a0
   143e4:	00050a63          	beqz	a0,143f8 <inet_pton_main+0x6f8>
   143e8:	00058537          	lui	a0,0x58
   143ec:	00000613          	li	a2,0
   143f0:	dc850513          	addi	a0,a0,-568 # 57dc8 <CSWTCH.18+0x5cc0>
   143f4:	209130ef          	jal	ra,27dfc <t_printf>
   143f8:	00058937          	lui	s2,0x58
   143fc:	e2890513          	addi	a0,s2,-472 # 57e28 <CSWTCH.18+0x5d20>
   14400:	04013023          	sd	zero,64(sp)
   14404:	04013423          	sd	zero,72(sp)
   14408:	04012823          	sw	zero,80(sp)
   1440c:	0d51c0ef          	jal	ra,30ce0 <inet_addr>
   14410:	00a12c23          	sw	a0,24(sp)
   14414:	01810593          	addi	a1,sp,24
   14418:	00040513          	mv	a0,s0
   1441c:	00400613          	li	a2,4
   14420:	20c140ef          	jal	ra,2862c <tohex>
   14424:	000589b7          	lui	s3,0x58
   14428:	e3898593          	addi	a1,s3,-456 # 57e38 <CSWTCH.18+0x5d30>
   1442c:	00040513          	mv	a0,s0
   14430:	2902b0ef          	jal	ra,3f6c0 <strcmp>
   14434:	00050c63          	beqz	a0,1444c <inet_pton_main+0x74c>
   14438:	00058537          	lui	a0,0x58
   1443c:	e3898613          	addi	a2,s3,-456
   14440:	00040593          	mv	a1,s0
   14444:	e4850513          	addi	a0,a0,-440 # 57e48 <CSWTCH.18+0x5d40>
   14448:	1b5130ef          	jal	ra,27dfc <t_printf>
   1444c:	e2890593          	addi	a1,s2,-472
   14450:	01810613          	addi	a2,sp,24
   14454:	00200513          	li	a0,2
   14458:	4e11c0ef          	jal	ra,31138 <inet_pton>
   1445c:	00050593          	mv	a1,a0
   14460:	00050a63          	beqz	a0,14474 <inet_pton_main+0x774>
   14464:	00058537          	lui	a0,0x58
   14468:	00000613          	li	a2,0
   1446c:	e9850513          	addi	a0,a0,-360 # 57e98 <CSWTCH.18+0x5d90>
   14470:	18d130ef          	jal	ra,27dfc <t_printf>
   14474:	00058937          	lui	s2,0x58
   14478:	ef890513          	addi	a0,s2,-264 # 57ef8 <CSWTCH.18+0x5df0>
   1447c:	04010413          	addi	s0,sp,64
   14480:	04013023          	sd	zero,64(sp)
   14484:	04013423          	sd	zero,72(sp)
   14488:	04012823          	sw	zero,80(sp)
   1448c:	0551c0ef          	jal	ra,30ce0 <inet_addr>
   14490:	00a12c23          	sw	a0,24(sp)
   14494:	01810593          	addi	a1,sp,24
   14498:	00040513          	mv	a0,s0
   1449c:	00400613          	li	a2,4
   144a0:	18c140ef          	jal	ra,2862c <tohex>
   144a4:	000589b7          	lui	s3,0x58
   144a8:	f0898593          	addi	a1,s3,-248 # 57f08 <CSWTCH.18+0x5e00>
   144ac:	00040513          	mv	a0,s0
   144b0:	2102b0ef          	jal	ra,3f6c0 <strcmp>
   144b4:	00050c63          	beqz	a0,144cc <inet_pton_main+0x7cc>
   144b8:	00058537          	lui	a0,0x58
   144bc:	f0898613          	addi	a2,s3,-248
   144c0:	00040593          	mv	a1,s0
   144c4:	f1850513          	addi	a0,a0,-232 # 57f18 <CSWTCH.18+0x5e10>
   144c8:	135130ef          	jal	ra,27dfc <t_printf>
   144cc:	ef890593          	addi	a1,s2,-264
   144d0:	01810613          	addi	a2,sp,24
   144d4:	00200513          	li	a0,2
   144d8:	4611c0ef          	jal	ra,31138 <inet_pton>
   144dc:	00050593          	mv	a1,a0
   144e0:	00050a63          	beqz	a0,144f4 <inet_pton_main+0x7f4>
   144e4:	00058537          	lui	a0,0x58
   144e8:	00000613          	li	a2,0
   144ec:	f6850513          	addi	a0,a0,-152 # 57f68 <CSWTCH.18+0x5e60>
   144f0:	10d130ef          	jal	ra,27dfc <t_printf>
   144f4:	00058937          	lui	s2,0x58
   144f8:	fc890513          	addi	a0,s2,-56 # 57fc8 <CSWTCH.18+0x5ec0>
   144fc:	04013023          	sd	zero,64(sp)
   14500:	04013423          	sd	zero,72(sp)
   14504:	04012823          	sw	zero,80(sp)
   14508:	7d81c0ef          	jal	ra,30ce0 <inet_addr>
   1450c:	00a12c23          	sw	a0,24(sp)
   14510:	01810593          	addi	a1,sp,24
   14514:	00040513          	mv	a0,s0
   14518:	00400613          	li	a2,4
   1451c:	110140ef          	jal	ra,2862c <tohex>
   14520:	000589b7          	lui	s3,0x58
   14524:	fe098593          	addi	a1,s3,-32 # 57fe0 <CSWTCH.18+0x5ed8>
   14528:	00040513          	mv	a0,s0
   1452c:	1942b0ef          	jal	ra,3f6c0 <strcmp>
   14530:	00050c63          	beqz	a0,14548 <inet_pton_main+0x848>
   14534:	00058537          	lui	a0,0x58
   14538:	fe098613          	addi	a2,s3,-32
   1453c:	00040593          	mv	a1,s0
   14540:	ff050513          	addi	a0,a0,-16 # 57ff0 <CSWTCH.18+0x5ee8>
   14544:	0b9130ef          	jal	ra,27dfc <t_printf>
   14548:	fc890593          	addi	a1,s2,-56
   1454c:	01810613          	addi	a2,sp,24
   14550:	00200513          	li	a0,2
   14554:	3e51c0ef          	jal	ra,31138 <inet_pton>
   14558:	00050593          	mv	a1,a0
   1455c:	00050a63          	beqz	a0,14570 <inet_pton_main+0x870>
   14560:	00058537          	lui	a0,0x58
   14564:	00000613          	li	a2,0
   14568:	04850513          	addi	a0,a0,72 # 58048 <CSWTCH.18+0x5f40>
   1456c:	091130ef          	jal	ra,27dfc <t_printf>
   14570:	00058937          	lui	s2,0x58
   14574:	0b090513          	addi	a0,s2,176 # 580b0 <CSWTCH.18+0x5fa8>
   14578:	04013023          	sd	zero,64(sp)
   1457c:	04013423          	sd	zero,72(sp)
   14580:	04012823          	sw	zero,80(sp)
   14584:	75c1c0ef          	jal	ra,30ce0 <inet_addr>
   14588:	00a12c23          	sw	a0,24(sp)
   1458c:	01810593          	addi	a1,sp,24
   14590:	00040513          	mv	a0,s0
   14594:	00400613          	li	a2,4
   14598:	094140ef          	jal	ra,2862c <tohex>
   1459c:	97048593          	addi	a1,s1,-1680
   145a0:	00040513          	mv	a0,s0
   145a4:	11c2b0ef          	jal	ra,3f6c0 <strcmp>
   145a8:	00050c63          	beqz	a0,145c0 <inet_pton_main+0x8c0>
   145ac:	00058537          	lui	a0,0x58
   145b0:	97048613          	addi	a2,s1,-1680
   145b4:	00040593          	mv	a1,s0
   145b8:	0b850513          	addi	a0,a0,184 # 580b8 <CSWTCH.18+0x5fb0>
   145bc:	041130ef          	jal	ra,27dfc <t_printf>
   145c0:	0b090593          	addi	a1,s2,176
   145c4:	01810613          	addi	a2,sp,24
   145c8:	00200513          	li	a0,2
   145cc:	36d1c0ef          	jal	ra,31138 <inet_pton>
   145d0:	00050593          	mv	a1,a0
   145d4:	00050a63          	beqz	a0,145e8 <inet_pton_main+0x8e8>
   145d8:	00058537          	lui	a0,0x58
   145dc:	00000613          	li	a2,0
   145e0:	10850513          	addi	a0,a0,264 # 58108 <CSWTCH.18+0x6000>
   145e4:	019130ef          	jal	ra,27dfc <t_printf>
   145e8:	00058937          	lui	s2,0x58
   145ec:	16890513          	addi	a0,s2,360 # 58168 <CSWTCH.18+0x6060>
   145f0:	04013023          	sd	zero,64(sp)
   145f4:	04013423          	sd	zero,72(sp)
   145f8:	04012823          	sw	zero,80(sp)
   145fc:	6e41c0ef          	jal	ra,30ce0 <inet_addr>
   14600:	00a12c23          	sw	a0,24(sp)
   14604:	01810593          	addi	a1,sp,24
   14608:	00040513          	mv	a0,s0
   1460c:	00400613          	li	a2,4
   14610:	01c140ef          	jal	ra,2862c <tohex>
   14614:	97048593          	addi	a1,s1,-1680
   14618:	00040513          	mv	a0,s0
   1461c:	0a42b0ef          	jal	ra,3f6c0 <strcmp>
   14620:	00050c63          	beqz	a0,14638 <inet_pton_main+0x938>
   14624:	00058537          	lui	a0,0x58
   14628:	97048613          	addi	a2,s1,-1680
   1462c:	00040593          	mv	a1,s0
   14630:	17050513          	addi	a0,a0,368 # 58170 <CSWTCH.18+0x6068>
   14634:	7c8130ef          	jal	ra,27dfc <t_printf>
   14638:	16890593          	addi	a1,s2,360
   1463c:	01810613          	addi	a2,sp,24
   14640:	00200513          	li	a0,2
   14644:	2f51c0ef          	jal	ra,31138 <inet_pton>
   14648:	00050593          	mv	a1,a0
   1464c:	00050a63          	beqz	a0,14660 <inet_pton_main+0x960>
   14650:	00058537          	lui	a0,0x58
   14654:	00000613          	li	a2,0
   14658:	1c050513          	addi	a0,a0,448 # 581c0 <CSWTCH.18+0x60b8>
   1465c:	7a0130ef          	jal	ra,27dfc <t_printf>
   14660:	00058937          	lui	s2,0x58
   14664:	22090513          	addi	a0,s2,544 # 58220 <CSWTCH.18+0x6118>
   14668:	04013023          	sd	zero,64(sp)
   1466c:	04013423          	sd	zero,72(sp)
   14670:	04012823          	sw	zero,80(sp)
   14674:	66c1c0ef          	jal	ra,30ce0 <inet_addr>
   14678:	00a12c23          	sw	a0,24(sp)
   1467c:	01810593          	addi	a1,sp,24
   14680:	00040513          	mv	a0,s0
   14684:	00400613          	li	a2,4
   14688:	7a5130ef          	jal	ra,2862c <tohex>
   1468c:	97048593          	addi	a1,s1,-1680
   14690:	00040513          	mv	a0,s0
   14694:	02c2b0ef          	jal	ra,3f6c0 <strcmp>
   14698:	00050c63          	beqz	a0,146b0 <inet_pton_main+0x9b0>
   1469c:	00058537          	lui	a0,0x58
   146a0:	97048613          	addi	a2,s1,-1680
   146a4:	00040593          	mv	a1,s0
   146a8:	22850513          	addi	a0,a0,552 # 58228 <CSWTCH.18+0x6120>
   146ac:	750130ef          	jal	ra,27dfc <t_printf>
   146b0:	22090593          	addi	a1,s2,544
   146b4:	01810613          	addi	a2,sp,24
   146b8:	00200513          	li	a0,2
   146bc:	27d1c0ef          	jal	ra,31138 <inet_pton>
   146c0:	00050593          	mv	a1,a0
   146c4:	00050a63          	beqz	a0,146d8 <inet_pton_main+0x9d8>
   146c8:	00058537          	lui	a0,0x58
   146cc:	00000613          	li	a2,0
   146d0:	27850513          	addi	a0,a0,632 # 58278 <CSWTCH.18+0x6170>
   146d4:	728130ef          	jal	ra,27dfc <t_printf>
   146d8:	00058937          	lui	s2,0x58
   146dc:	2d890513          	addi	a0,s2,728 # 582d8 <CSWTCH.18+0x61d0>
   146e0:	04013023          	sd	zero,64(sp)
   146e4:	04013423          	sd	zero,72(sp)
   146e8:	04012823          	sw	zero,80(sp)
   146ec:	5f41c0ef          	jal	ra,30ce0 <inet_addr>
   146f0:	00a12c23          	sw	a0,24(sp)
   146f4:	01810593          	addi	a1,sp,24
   146f8:	00040513          	mv	a0,s0
   146fc:	00400613          	li	a2,4
   14700:	72d130ef          	jal	ra,2862c <tohex>
   14704:	97048593          	addi	a1,s1,-1680
   14708:	00040513          	mv	a0,s0
   1470c:	7b52a0ef          	jal	ra,3f6c0 <strcmp>
   14710:	00050c63          	beqz	a0,14728 <inet_pton_main+0xa28>
   14714:	00058537          	lui	a0,0x58
   14718:	97048613          	addi	a2,s1,-1680
   1471c:	00040593          	mv	a1,s0
   14720:	2e850513          	addi	a0,a0,744 # 582e8 <CSWTCH.18+0x61e0>
   14724:	6d8130ef          	jal	ra,27dfc <t_printf>
   14728:	2d890593          	addi	a1,s2,728
   1472c:	01810613          	addi	a2,sp,24
   14730:	00200513          	li	a0,2
   14734:	2051c0ef          	jal	ra,31138 <inet_pton>
   14738:	00050593          	mv	a1,a0
   1473c:	00050a63          	beqz	a0,14750 <inet_pton_main+0xa50>
   14740:	00058537          	lui	a0,0x58
   14744:	00000613          	li	a2,0
   14748:	33850513          	addi	a0,a0,824 # 58338 <CSWTCH.18+0x6230>
   1474c:	6b0130ef          	jal	ra,27dfc <t_printf>
   14750:	00058937          	lui	s2,0x58
   14754:	39890513          	addi	a0,s2,920 # 58398 <CSWTCH.18+0x6290>
   14758:	04013023          	sd	zero,64(sp)
   1475c:	04013423          	sd	zero,72(sp)
   14760:	04012823          	sw	zero,80(sp)
   14764:	57c1c0ef          	jal	ra,30ce0 <inet_addr>
   14768:	00a12c23          	sw	a0,24(sp)
   1476c:	01810593          	addi	a1,sp,24
   14770:	00040513          	mv	a0,s0
   14774:	00400613          	li	a2,4
   14778:	6b5130ef          	jal	ra,2862c <tohex>
   1477c:	97048593          	addi	a1,s1,-1680
   14780:	00040513          	mv	a0,s0
   14784:	73d2a0ef          	jal	ra,3f6c0 <strcmp>
   14788:	00050c63          	beqz	a0,147a0 <inet_pton_main+0xaa0>
   1478c:	00058537          	lui	a0,0x58
   14790:	97048613          	addi	a2,s1,-1680
   14794:	00040593          	mv	a1,s0
   14798:	3a050513          	addi	a0,a0,928 # 583a0 <CSWTCH.18+0x6298>
   1479c:	660130ef          	jal	ra,27dfc <t_printf>
   147a0:	39890593          	addi	a1,s2,920
   147a4:	01810613          	addi	a2,sp,24
   147a8:	00200513          	li	a0,2
   147ac:	18d1c0ef          	jal	ra,31138 <inet_pton>
   147b0:	00050593          	mv	a1,a0
   147b4:	00050a63          	beqz	a0,147c8 <inet_pton_main+0xac8>
   147b8:	00058537          	lui	a0,0x58
   147bc:	00000613          	li	a2,0
   147c0:	3f050513          	addi	a0,a0,1008 # 583f0 <CSWTCH.18+0x62e8>
   147c4:	638130ef          	jal	ra,27dfc <t_printf>
   147c8:	00058937          	lui	s2,0x58
   147cc:	45090513          	addi	a0,s2,1104 # 58450 <CSWTCH.18+0x6348>
   147d0:	04013023          	sd	zero,64(sp)
   147d4:	04013423          	sd	zero,72(sp)
   147d8:	04012823          	sw	zero,80(sp)
   147dc:	5041c0ef          	jal	ra,30ce0 <inet_addr>
   147e0:	00a12c23          	sw	a0,24(sp)
   147e4:	01810593          	addi	a1,sp,24
   147e8:	00040513          	mv	a0,s0
   147ec:	00400613          	li	a2,4
   147f0:	63d130ef          	jal	ra,2862c <tohex>
   147f4:	97048593          	addi	a1,s1,-1680
   147f8:	00040513          	mv	a0,s0
   147fc:	6c52a0ef          	jal	ra,3f6c0 <strcmp>
   14800:	00050c63          	beqz	a0,14818 <inet_pton_main+0xb18>
   14804:	00058537          	lui	a0,0x58
   14808:	97048613          	addi	a2,s1,-1680
   1480c:	00040593          	mv	a1,s0
   14810:	46050513          	addi	a0,a0,1120 # 58460 <CSWTCH.18+0x6358>
   14814:	5e8130ef          	jal	ra,27dfc <t_printf>
   14818:	45090593          	addi	a1,s2,1104
   1481c:	01810613          	addi	a2,sp,24
   14820:	00200513          	li	a0,2
   14824:	1151c0ef          	jal	ra,31138 <inet_pton>
   14828:	00050593          	mv	a1,a0
   1482c:	00050a63          	beqz	a0,14840 <inet_pton_main+0xb40>
   14830:	00058537          	lui	a0,0x58
   14834:	00000613          	li	a2,0
   14838:	4b050513          	addi	a0,a0,1200 # 584b0 <CSWTCH.18+0x63a8>
   1483c:	5c0130ef          	jal	ra,27dfc <t_printf>
   14840:	00058937          	lui	s2,0x58
   14844:	51090513          	addi	a0,s2,1296 # 58510 <CSWTCH.18+0x6408>
   14848:	04013023          	sd	zero,64(sp)
   1484c:	04013423          	sd	zero,72(sp)
   14850:	04012823          	sw	zero,80(sp)
   14854:	48c1c0ef          	jal	ra,30ce0 <inet_addr>
   14858:	00a12c23          	sw	a0,24(sp)
   1485c:	01810593          	addi	a1,sp,24
   14860:	00040513          	mv	a0,s0
   14864:	00400613          	li	a2,4
   14868:	5c5130ef          	jal	ra,2862c <tohex>
   1486c:	97048593          	addi	a1,s1,-1680
   14870:	00040513          	mv	a0,s0
   14874:	64d2a0ef          	jal	ra,3f6c0 <strcmp>
   14878:	00050c63          	beqz	a0,14890 <inet_pton_main+0xb90>
   1487c:	00058537          	lui	a0,0x58
   14880:	97048613          	addi	a2,s1,-1680
   14884:	00040593          	mv	a1,s0
   14888:	52850513          	addi	a0,a0,1320 # 58528 <CSWTCH.18+0x6420>
   1488c:	570130ef          	jal	ra,27dfc <t_printf>
   14890:	51090593          	addi	a1,s2,1296
   14894:	01810613          	addi	a2,sp,24
   14898:	00200513          	li	a0,2
   1489c:	09d1c0ef          	jal	ra,31138 <inet_pton>
   148a0:	00050593          	mv	a1,a0
   148a4:	00050a63          	beqz	a0,148b8 <inet_pton_main+0xbb8>
   148a8:	00058537          	lui	a0,0x58
   148ac:	00000613          	li	a2,0
   148b0:	58050513          	addi	a0,a0,1408 # 58580 <CSWTCH.18+0x6478>
   148b4:	548130ef          	jal	ra,27dfc <t_printf>
   148b8:	000584b7          	lui	s1,0x58
   148bc:	5e848513          	addi	a0,s1,1512 # 585e8 <CSWTCH.18+0x64e0>
   148c0:	04013023          	sd	zero,64(sp)
   148c4:	04013423          	sd	zero,72(sp)
   148c8:	04012823          	sw	zero,80(sp)
   148cc:	4141c0ef          	jal	ra,30ce0 <inet_addr>
   148d0:	00a12c23          	sw	a0,24(sp)
   148d4:	01810593          	addi	a1,sp,24
   148d8:	00040513          	mv	a0,s0
   148dc:	00400613          	li	a2,4
   148e0:	54d130ef          	jal	ra,2862c <tohex>
   148e4:	00058937          	lui	s2,0x58
   148e8:	97090593          	addi	a1,s2,-1680 # 57970 <CSWTCH.18+0x5868>
   148ec:	00040513          	mv	a0,s0
   148f0:	5d12a0ef          	jal	ra,3f6c0 <strcmp>
   148f4:	00050c63          	beqz	a0,1490c <inet_pton_main+0xc0c>
   148f8:	00058537          	lui	a0,0x58
   148fc:	97090613          	addi	a2,s2,-1680
   14900:	00040593          	mv	a1,s0
   14904:	60050513          	addi	a0,a0,1536 # 58600 <CSWTCH.18+0x64f8>
   14908:	4f4130ef          	jal	ra,27dfc <t_printf>
   1490c:	5e848593          	addi	a1,s1,1512
   14910:	01810613          	addi	a2,sp,24
   14914:	00200513          	li	a0,2
   14918:	0211c0ef          	jal	ra,31138 <inet_pton>
   1491c:	00050593          	mv	a1,a0
   14920:	00050a63          	beqz	a0,14934 <inet_pton_main+0xc34>
   14924:	00058537          	lui	a0,0x58
   14928:	00000613          	li	a2,0
   1492c:	65850513          	addi	a0,a0,1624 # 58658 <CSWTCH.18+0x6550>
   14930:	4cc130ef          	jal	ra,27dfc <t_printf>
   14934:	000584b7          	lui	s1,0x58
   14938:	6c048513          	addi	a0,s1,1728 # 586c0 <CSWTCH.18+0x65b8>
   1493c:	04013023          	sd	zero,64(sp)
   14940:	04013423          	sd	zero,72(sp)
   14944:	04012823          	sw	zero,80(sp)
   14948:	3981c0ef          	jal	ra,30ce0 <inet_addr>
   1494c:	00a12c23          	sw	a0,24(sp)
   14950:	01810593          	addi	a1,sp,24
   14954:	00040513          	mv	a0,s0
   14958:	00400613          	li	a2,4
   1495c:	4d1130ef          	jal	ra,2862c <tohex>
   14960:	97090593          	addi	a1,s2,-1680
   14964:	00040513          	mv	a0,s0
   14968:	5592a0ef          	jal	ra,3f6c0 <strcmp>
   1496c:	00050c63          	beqz	a0,14984 <inet_pton_main+0xc84>
   14970:	00058537          	lui	a0,0x58
   14974:	97090613          	addi	a2,s2,-1680
   14978:	00040593          	mv	a1,s0
   1497c:	6d050513          	addi	a0,a0,1744 # 586d0 <CSWTCH.18+0x65c8>
   14980:	47c130ef          	jal	ra,27dfc <t_printf>
   14984:	6c048593          	addi	a1,s1,1728
   14988:	01810613          	addi	a2,sp,24
   1498c:	00200513          	li	a0,2
   14990:	7a81c0ef          	jal	ra,31138 <inet_pton>
   14994:	00050593          	mv	a1,a0
   14998:	00050a63          	beqz	a0,149ac <inet_pton_main+0xcac>
   1499c:	00058537          	lui	a0,0x58
   149a0:	00000613          	li	a2,0
   149a4:	72050513          	addi	a0,a0,1824 # 58720 <CSWTCH.18+0x6618>
   149a8:	454130ef          	jal	ra,27dfc <t_printf>
   149ac:	0005a5b7          	lui	a1,0x5a
   149b0:	7b858593          	addi	a1,a1,1976 # 5a7b8 <CSWTCH.18+0x86b0>
   149b4:	00040613          	mv	a2,s0
   149b8:	00a00513          	li	a0,10
   149bc:	04013023          	sd	zero,64(sp)
   149c0:	04013423          	sd	zero,72(sp)
   149c4:	7741c0ef          	jal	ra,31138 <inet_pton>
   149c8:	00050593          	mv	a1,a0
   149cc:	00050a63          	beqz	a0,149e0 <inet_pton_main+0xce0>
   149d0:	00058537          	lui	a0,0x58
   149d4:	00000613          	li	a2,0
   149d8:	78050513          	addi	a0,a0,1920 # 58780 <CSWTCH.18+0x6678>
   149dc:	420130ef          	jal	ra,27dfc <t_printf>
   149e0:	03400613          	li	a2,52
   149e4:	00000593          	li	a1,0
   149e8:	04810513          	addi	a0,sp,72
   149ec:	00013423          	sd	zero,8(sp)
   149f0:	00013823          	sd	zero,16(sp)
   149f4:	00013c23          	sd	zero,24(sp)
   149f8:	02013023          	sd	zero,32(sp)
   149fc:	02013423          	sd	zero,40(sp)
   14a00:	02013823          	sd	zero,48(sp)
   14a04:	02013c23          	sd	zero,56(sp)
   14a08:	04013023          	sd	zero,64(sp)
   14a0c:	2e52a0ef          	jal	ra,3f4f0 <memset>
   14a10:	000585b7          	lui	a1,0x58
   14a14:	7d858593          	addi	a1,a1,2008 # 587d8 <CSWTCH.18+0x66d0>
   14a18:	00810613          	addi	a2,sp,8
   14a1c:	00a00513          	li	a0,10
   14a20:	7181c0ef          	jal	ra,31138 <inet_pton>
   14a24:	00100793          	li	a5,1
   14a28:	00050593          	mv	a1,a0
   14a2c:	00f50a63          	beq	a0,a5,14a40 <inet_pton_main+0xd40>
   14a30:	00058537          	lui	a0,0x58
   14a34:	00100613          	li	a2,1
   14a38:	7e050513          	addi	a0,a0,2016 # 587e0 <CSWTCH.18+0x66d8>
   14a3c:	3c0130ef          	jal	ra,27dfc <t_printf>
   14a40:	00810593          	addi	a1,sp,8
   14a44:	01810513          	addi	a0,sp,24
   14a48:	01000613          	li	a2,16
   14a4c:	3e1130ef          	jal	ra,2862c <tohex>
   14a50:	000594b7          	lui	s1,0x59
   14a54:	83848593          	addi	a1,s1,-1992 # 58838 <CSWTCH.18+0x6730>
   14a58:	01810513          	addi	a0,sp,24
   14a5c:	4652a0ef          	jal	ra,3f6c0 <strcmp>
   14a60:	00050c63          	beqz	a0,14a78 <inet_pton_main+0xd78>
   14a64:	00059537          	lui	a0,0x59
   14a68:	83848613          	addi	a2,s1,-1992
   14a6c:	01810593          	addi	a1,sp,24
   14a70:	86050513          	addi	a0,a0,-1952 # 58860 <CSWTCH.18+0x6758>
   14a74:	388130ef          	jal	ra,27dfc <t_printf>
   14a78:	83848593          	addi	a1,s1,-1992
   14a7c:	00810513          	addi	a0,sp,8
   14a80:	421130ef          	jal	ra,286a0 <tobin>
   14a84:	03c00693          	li	a3,60
   14a88:	00040613          	mv	a2,s0
   14a8c:	00810593          	addi	a1,sp,8
   14a90:	00a00513          	li	a0,10
   14a94:	4241c0ef          	jal	ra,30eb8 <inet_ntop>
   14a98:	00a40863          	beq	s0,a0,14aa8 <inet_pton_main+0xda8>
   14a9c:	00059537          	lui	a0,0x59
   14aa0:	8b850513          	addi	a0,a0,-1864 # 588b8 <CSWTCH.18+0x67b0>
   14aa4:	358130ef          	jal	ra,27dfc <t_printf>
   14aa8:	00810613          	addi	a2,sp,8
   14aac:	00040593          	mv	a1,s0
   14ab0:	00a00513          	li	a0,10
   14ab4:	6841c0ef          	jal	ra,31138 <inet_pton>
   14ab8:	00100793          	li	a5,1
   14abc:	00f50a63          	beq	a0,a5,14ad0 <inet_pton_main+0xdd0>
   14ac0:	00059537          	lui	a0,0x59
   14ac4:	00040593          	mv	a1,s0
   14ac8:	93850513          	addi	a0,a0,-1736 # 58938 <CSWTCH.18+0x6830>
   14acc:	330130ef          	jal	ra,27dfc <t_printf>
   14ad0:	00810593          	addi	a1,sp,8
   14ad4:	01810513          	addi	a0,sp,24
   14ad8:	01000613          	li	a2,16
   14adc:	351130ef          	jal	ra,2862c <tohex>
   14ae0:	83848593          	addi	a1,s1,-1992
   14ae4:	01810513          	addi	a0,sp,24
   14ae8:	3d92a0ef          	jal	ra,3f6c0 <strcmp>
   14aec:	00050e63          	beqz	a0,14b08 <inet_pton_main+0xe08>
   14af0:	00059537          	lui	a0,0x59
   14af4:	83848693          	addi	a3,s1,-1992
   14af8:	01810613          	addi	a2,sp,24
   14afc:	00040593          	mv	a1,s0
   14b00:	9c850513          	addi	a0,a0,-1592 # 589c8 <CSWTCH.18+0x68c0>
   14b04:	2f8130ef          	jal	ra,27dfc <t_printf>
   14b08:	00059937          	lui	s2,0x59
   14b0c:	01800613          	li	a2,24
   14b10:	a5090593          	addi	a1,s2,-1456 # 58a50 <CSWTCH.18+0x6948>
   14b14:	83848513          	addi	a0,s1,-1992
   14b18:	7152a0ef          	jal	ra,3fa2c <strncmp>
   14b1c:	02051263          	bnez	a0,14b40 <inet_pton_main+0xe40>
   14b20:	02e00593          	li	a1,46
   14b24:	00040513          	mv	a0,s0
   14b28:	2c12a0ef          	jal	ra,3f5e8 <strchr>
   14b2c:	00051a63          	bnez	a0,14b40 <inet_pton_main+0xe40>
   14b30:	00059537          	lui	a0,0x59
   14b34:	00040593          	mv	a1,s0
   14b38:	a7050513          	addi	a0,a0,-1424 # 58a70 <CSWTCH.18+0x6968>
   14b3c:	2c0130ef          	jal	ra,27dfc <t_printf>
   14b40:	03400613          	li	a2,52
   14b44:	00000593          	li	a1,0
   14b48:	04810513          	addi	a0,sp,72
   14b4c:	00013423          	sd	zero,8(sp)
   14b50:	00013823          	sd	zero,16(sp)
   14b54:	00013c23          	sd	zero,24(sp)
   14b58:	02013023          	sd	zero,32(sp)
   14b5c:	02013423          	sd	zero,40(sp)
   14b60:	02013823          	sd	zero,48(sp)
   14b64:	02013c23          	sd	zero,56(sp)
   14b68:	04013023          	sd	zero,64(sp)
   14b6c:	1852a0ef          	jal	ra,3f4f0 <memset>
   14b70:	000595b7          	lui	a1,0x59
   14b74:	af858593          	addi	a1,a1,-1288 # 58af8 <CSWTCH.18+0x69f0>
   14b78:	00810613          	addi	a2,sp,8
   14b7c:	00a00513          	li	a0,10
   14b80:	5b81c0ef          	jal	ra,31138 <inet_pton>
   14b84:	00100793          	li	a5,1
   14b88:	00050593          	mv	a1,a0
   14b8c:	00f50a63          	beq	a0,a5,14ba0 <inet_pton_main+0xea0>
   14b90:	00059537          	lui	a0,0x59
   14b94:	00100613          	li	a2,1
   14b98:	b0050513          	addi	a0,a0,-1280 # 58b00 <CSWTCH.18+0x69f8>
   14b9c:	260130ef          	jal	ra,27dfc <t_printf>
   14ba0:	00810593          	addi	a1,sp,8
   14ba4:	01810513          	addi	a0,sp,24
   14ba8:	01000613          	li	a2,16
   14bac:	281130ef          	jal	ra,2862c <tohex>
   14bb0:	000594b7          	lui	s1,0x59
   14bb4:	b5848593          	addi	a1,s1,-1192 # 58b58 <CSWTCH.18+0x6a50>
   14bb8:	01810513          	addi	a0,sp,24
   14bbc:	3052a0ef          	jal	ra,3f6c0 <strcmp>
   14bc0:	00050c63          	beqz	a0,14bd8 <inet_pton_main+0xed8>
   14bc4:	00059537          	lui	a0,0x59
   14bc8:	b5848613          	addi	a2,s1,-1192
   14bcc:	01810593          	addi	a1,sp,24
   14bd0:	b8050513          	addi	a0,a0,-1152 # 58b80 <CSWTCH.18+0x6a78>
   14bd4:	228130ef          	jal	ra,27dfc <t_printf>
   14bd8:	b5848593          	addi	a1,s1,-1192
   14bdc:	00810513          	addi	a0,sp,8
   14be0:	2c1130ef          	jal	ra,286a0 <tobin>
   14be4:	04010413          	addi	s0,sp,64
   14be8:	03c00693          	li	a3,60
   14bec:	00040613          	mv	a2,s0
   14bf0:	00810593          	addi	a1,sp,8
   14bf4:	00a00513          	li	a0,10
   14bf8:	2c01c0ef          	jal	ra,30eb8 <inet_ntop>
   14bfc:	00a40863          	beq	s0,a0,14c0c <inet_pton_main+0xf0c>
   14c00:	00059537          	lui	a0,0x59
   14c04:	bd850513          	addi	a0,a0,-1064 # 58bd8 <CSWTCH.18+0x6ad0>
   14c08:	1f4130ef          	jal	ra,27dfc <t_printf>
   14c0c:	00810613          	addi	a2,sp,8
   14c10:	00040593          	mv	a1,s0
   14c14:	00a00513          	li	a0,10
   14c18:	5201c0ef          	jal	ra,31138 <inet_pton>
   14c1c:	00100793          	li	a5,1
   14c20:	00f50a63          	beq	a0,a5,14c34 <inet_pton_main+0xf34>
   14c24:	00059537          	lui	a0,0x59
   14c28:	00040593          	mv	a1,s0
   14c2c:	c5850513          	addi	a0,a0,-936 # 58c58 <CSWTCH.18+0x6b50>
   14c30:	1cc130ef          	jal	ra,27dfc <t_printf>
   14c34:	00810593          	addi	a1,sp,8
   14c38:	01810513          	addi	a0,sp,24
   14c3c:	01000613          	li	a2,16
   14c40:	1ed130ef          	jal	ra,2862c <tohex>
   14c44:	b5848593          	addi	a1,s1,-1192
   14c48:	01810513          	addi	a0,sp,24
   14c4c:	2752a0ef          	jal	ra,3f6c0 <strcmp>
   14c50:	00050e63          	beqz	a0,14c6c <inet_pton_main+0xf6c>
   14c54:	00059537          	lui	a0,0x59
   14c58:	b5848693          	addi	a3,s1,-1192
   14c5c:	01810613          	addi	a2,sp,24
   14c60:	00040593          	mv	a1,s0
   14c64:	ce850513          	addi	a0,a0,-792 # 58ce8 <CSWTCH.18+0x6be0>
   14c68:	194130ef          	jal	ra,27dfc <t_printf>
   14c6c:	01800613          	li	a2,24
   14c70:	a5090593          	addi	a1,s2,-1456
   14c74:	b5848513          	addi	a0,s1,-1192
   14c78:	5b52a0ef          	jal	ra,3fa2c <strncmp>
   14c7c:	02051263          	bnez	a0,14ca0 <inet_pton_main+0xfa0>
   14c80:	02e00593          	li	a1,46
   14c84:	00040513          	mv	a0,s0
   14c88:	1612a0ef          	jal	ra,3f5e8 <strchr>
   14c8c:	00051a63          	bnez	a0,14ca0 <inet_pton_main+0xfa0>
   14c90:	00059537          	lui	a0,0x59
   14c94:	00040593          	mv	a1,s0
   14c98:	d7050513          	addi	a0,a0,-656 # 58d70 <CSWTCH.18+0x6c68>
   14c9c:	160130ef          	jal	ra,27dfc <t_printf>
   14ca0:	000595b7          	lui	a1,0x59
   14ca4:	df858593          	addi	a1,a1,-520 # 58df8 <CSWTCH.18+0x6cf0>
   14ca8:	00040613          	mv	a2,s0
   14cac:	00a00513          	li	a0,10
   14cb0:	04013023          	sd	zero,64(sp)
   14cb4:	04013423          	sd	zero,72(sp)
   14cb8:	4801c0ef          	jal	ra,31138 <inet_pton>
   14cbc:	00050593          	mv	a1,a0
   14cc0:	00050a63          	beqz	a0,14cd4 <inet_pton_main+0xfd4>
   14cc4:	00059537          	lui	a0,0x59
   14cc8:	00000613          	li	a2,0
   14ccc:	e0050513          	addi	a0,a0,-512 # 58e00 <CSWTCH.18+0x6cf8>
   14cd0:	12c130ef          	jal	ra,27dfc <t_printf>
   14cd4:	000595b7          	lui	a1,0x59
   14cd8:	e5858593          	addi	a1,a1,-424 # 58e58 <CSWTCH.18+0x6d50>
   14cdc:	00040613          	mv	a2,s0
   14ce0:	00a00513          	li	a0,10
   14ce4:	04013023          	sd	zero,64(sp)
   14ce8:	04013423          	sd	zero,72(sp)
   14cec:	44c1c0ef          	jal	ra,31138 <inet_pton>
   14cf0:	00050593          	mv	a1,a0
   14cf4:	00050a63          	beqz	a0,14d08 <inet_pton_main+0x1008>
   14cf8:	00059537          	lui	a0,0x59
   14cfc:	00000613          	li	a2,0
   14d00:	e6850513          	addi	a0,a0,-408 # 58e68 <CSWTCH.18+0x6d60>
   14d04:	0f8130ef          	jal	ra,27dfc <t_printf>
   14d08:	000595b7          	lui	a1,0x59
   14d0c:	ec858593          	addi	a1,a1,-312 # 58ec8 <CSWTCH.18+0x6dc0>
   14d10:	00040613          	mv	a2,s0
   14d14:	00a00513          	li	a0,10
   14d18:	04013023          	sd	zero,64(sp)
   14d1c:	04013423          	sd	zero,72(sp)
   14d20:	4181c0ef          	jal	ra,31138 <inet_pton>
   14d24:	00050593          	mv	a1,a0
   14d28:	00050a63          	beqz	a0,14d3c <inet_pton_main+0x103c>
   14d2c:	00059537          	lui	a0,0x59
   14d30:	00000613          	li	a2,0
   14d34:	ed850513          	addi	a0,a0,-296 # 58ed8 <CSWTCH.18+0x6dd0>
   14d38:	0c4130ef          	jal	ra,27dfc <t_printf>
   14d3c:	03400613          	li	a2,52
   14d40:	00000593          	li	a1,0
   14d44:	04810513          	addi	a0,sp,72
   14d48:	00013423          	sd	zero,8(sp)
   14d4c:	00013823          	sd	zero,16(sp)
   14d50:	00013c23          	sd	zero,24(sp)
   14d54:	02013023          	sd	zero,32(sp)
   14d58:	02013423          	sd	zero,40(sp)
   14d5c:	02013823          	sd	zero,48(sp)
   14d60:	02013c23          	sd	zero,56(sp)
   14d64:	04013023          	sd	zero,64(sp)
   14d68:	7882a0ef          	jal	ra,3f4f0 <memset>
   14d6c:	000595b7          	lui	a1,0x59
   14d70:	f3858593          	addi	a1,a1,-200 # 58f38 <CSWTCH.18+0x6e30>
   14d74:	00810613          	addi	a2,sp,8
   14d78:	00a00513          	li	a0,10
   14d7c:	3bc1c0ef          	jal	ra,31138 <inet_pton>
   14d80:	00100793          	li	a5,1
   14d84:	00050593          	mv	a1,a0
   14d88:	00f50a63          	beq	a0,a5,14d9c <inet_pton_main+0x109c>
   14d8c:	00059537          	lui	a0,0x59
   14d90:	00100613          	li	a2,1
   14d94:	f4850513          	addi	a0,a0,-184 # 58f48 <CSWTCH.18+0x6e40>
   14d98:	064130ef          	jal	ra,27dfc <t_printf>
   14d9c:	00810593          	addi	a1,sp,8
   14da0:	01810513          	addi	a0,sp,24
   14da4:	01000613          	li	a2,16
   14da8:	085130ef          	jal	ra,2862c <tohex>
   14dac:	000594b7          	lui	s1,0x59
   14db0:	fb048593          	addi	a1,s1,-80 # 58fb0 <CSWTCH.18+0x6ea8>
   14db4:	01810513          	addi	a0,sp,24
   14db8:	1092a0ef          	jal	ra,3f6c0 <strcmp>
   14dbc:	00050c63          	beqz	a0,14dd4 <inet_pton_main+0x10d4>
   14dc0:	00059537          	lui	a0,0x59
   14dc4:	fb048613          	addi	a2,s1,-80
   14dc8:	01810593          	addi	a1,sp,24
   14dcc:	fd850513          	addi	a0,a0,-40 # 58fd8 <CSWTCH.18+0x6ed0>
   14dd0:	02c130ef          	jal	ra,27dfc <t_printf>
   14dd4:	fb048593          	addi	a1,s1,-80
   14dd8:	00810513          	addi	a0,sp,8
   14ddc:	0c5130ef          	jal	ra,286a0 <tobin>
   14de0:	03c00693          	li	a3,60
   14de4:	00040613          	mv	a2,s0
   14de8:	00810593          	addi	a1,sp,8
   14dec:	00a00513          	li	a0,10
   14df0:	0c81c0ef          	jal	ra,30eb8 <inet_ntop>
   14df4:	00a40863          	beq	s0,a0,14e04 <inet_pton_main+0x1104>
   14df8:	00059537          	lui	a0,0x59
   14dfc:	04050513          	addi	a0,a0,64 # 59040 <CSWTCH.18+0x6f38>
   14e00:	7fd120ef          	jal	ra,27dfc <t_printf>
   14e04:	00810613          	addi	a2,sp,8
   14e08:	00040593          	mv	a1,s0
   14e0c:	00a00513          	li	a0,10
   14e10:	3281c0ef          	jal	ra,31138 <inet_pton>
   14e14:	00100793          	li	a5,1
   14e18:	00f50a63          	beq	a0,a5,14e2c <inet_pton_main+0x112c>
   14e1c:	00059537          	lui	a0,0x59
   14e20:	00040593          	mv	a1,s0
   14e24:	0c050513          	addi	a0,a0,192 # 590c0 <CSWTCH.18+0x6fb8>
   14e28:	7d5120ef          	jal	ra,27dfc <t_printf>
   14e2c:	00810593          	addi	a1,sp,8
   14e30:	01810513          	addi	a0,sp,24
   14e34:	01000613          	li	a2,16
   14e38:	7f4130ef          	jal	ra,2862c <tohex>
   14e3c:	fb048593          	addi	a1,s1,-80
   14e40:	01810513          	addi	a0,sp,24
   14e44:	07d2a0ef          	jal	ra,3f6c0 <strcmp>
   14e48:	00050e63          	beqz	a0,14e64 <inet_pton_main+0x1164>
   14e4c:	00059537          	lui	a0,0x59
   14e50:	fb048693          	addi	a3,s1,-80
   14e54:	01810613          	addi	a2,sp,24
   14e58:	00040593          	mv	a1,s0
   14e5c:	15050513          	addi	a0,a0,336 # 59150 <CSWTCH.18+0x7048>
   14e60:	79d120ef          	jal	ra,27dfc <t_printf>
   14e64:	01800613          	li	a2,24
   14e68:	a5090593          	addi	a1,s2,-1456
   14e6c:	fb048513          	addi	a0,s1,-80
   14e70:	3bd2a0ef          	jal	ra,3fa2c <strncmp>
   14e74:	02051263          	bnez	a0,14e98 <inet_pton_main+0x1198>
   14e78:	02e00593          	li	a1,46
   14e7c:	00040513          	mv	a0,s0
   14e80:	7682a0ef          	jal	ra,3f5e8 <strchr>
   14e84:	00051a63          	bnez	a0,14e98 <inet_pton_main+0x1198>
   14e88:	00059537          	lui	a0,0x59
   14e8c:	00040593          	mv	a1,s0
   14e90:	1d850513          	addi	a0,a0,472 # 591d8 <CSWTCH.18+0x70d0>
   14e94:	769120ef          	jal	ra,27dfc <t_printf>
   14e98:	03400613          	li	a2,52
   14e9c:	00000593          	li	a1,0
   14ea0:	04810513          	addi	a0,sp,72
   14ea4:	00013423          	sd	zero,8(sp)
   14ea8:	00013823          	sd	zero,16(sp)
   14eac:	00013c23          	sd	zero,24(sp)
   14eb0:	02013023          	sd	zero,32(sp)
   14eb4:	02013423          	sd	zero,40(sp)
   14eb8:	02013823          	sd	zero,48(sp)
   14ebc:	02013c23          	sd	zero,56(sp)
   14ec0:	04013023          	sd	zero,64(sp)
   14ec4:	62c2a0ef          	jal	ra,3f4f0 <memset>
   14ec8:	000595b7          	lui	a1,0x59
   14ecc:	26058593          	addi	a1,a1,608 # 59260 <CSWTCH.18+0x7158>
   14ed0:	00810613          	addi	a2,sp,8
   14ed4:	00a00513          	li	a0,10
   14ed8:	2601c0ef          	jal	ra,31138 <inet_pton>
   14edc:	00100793          	li	a5,1
   14ee0:	00050593          	mv	a1,a0
   14ee4:	00f50a63          	beq	a0,a5,14ef8 <inet_pton_main+0x11f8>
   14ee8:	00059537          	lui	a0,0x59
   14eec:	00100613          	li	a2,1
   14ef0:	27850513          	addi	a0,a0,632 # 59278 <CSWTCH.18+0x7170>
   14ef4:	709120ef          	jal	ra,27dfc <t_printf>
   14ef8:	00810593          	addi	a1,sp,8
   14efc:	01810513          	addi	a0,sp,24
   14f00:	01000613          	li	a2,16
   14f04:	728130ef          	jal	ra,2862c <tohex>
   14f08:	fb048593          	addi	a1,s1,-80
   14f0c:	01810513          	addi	a0,sp,24
   14f10:	7b02a0ef          	jal	ra,3f6c0 <strcmp>
   14f14:	00050c63          	beqz	a0,14f2c <inet_pton_main+0x122c>
   14f18:	00059537          	lui	a0,0x59
   14f1c:	fb048613          	addi	a2,s1,-80
   14f20:	01810593          	addi	a1,sp,24
   14f24:	2e850513          	addi	a0,a0,744 # 592e8 <CSWTCH.18+0x71e0>
   14f28:	6d5120ef          	jal	ra,27dfc <t_printf>
   14f2c:	fb048593          	addi	a1,s1,-80
   14f30:	00810513          	addi	a0,sp,8
   14f34:	76c130ef          	jal	ra,286a0 <tobin>
   14f38:	03c00693          	li	a3,60
   14f3c:	00040613          	mv	a2,s0
   14f40:	00810593          	addi	a1,sp,8
   14f44:	00a00513          	li	a0,10
   14f48:	7711b0ef          	jal	ra,30eb8 <inet_ntop>
   14f4c:	00a40863          	beq	s0,a0,14f5c <inet_pton_main+0x125c>
   14f50:	00059537          	lui	a0,0x59
   14f54:	35850513          	addi	a0,a0,856 # 59358 <CSWTCH.18+0x7250>
   14f58:	6a5120ef          	jal	ra,27dfc <t_printf>
   14f5c:	00810613          	addi	a2,sp,8
   14f60:	00040593          	mv	a1,s0
   14f64:	00a00513          	li	a0,10
   14f68:	1d01c0ef          	jal	ra,31138 <inet_pton>
   14f6c:	00100793          	li	a5,1
   14f70:	00f50a63          	beq	a0,a5,14f84 <inet_pton_main+0x1284>
   14f74:	00059537          	lui	a0,0x59
   14f78:	00040593          	mv	a1,s0
   14f7c:	3d850513          	addi	a0,a0,984 # 593d8 <CSWTCH.18+0x72d0>
   14f80:	67d120ef          	jal	ra,27dfc <t_printf>
   14f84:	00810593          	addi	a1,sp,8
   14f88:	01810513          	addi	a0,sp,24
   14f8c:	01000613          	li	a2,16
   14f90:	69c130ef          	jal	ra,2862c <tohex>
   14f94:	fb048593          	addi	a1,s1,-80
   14f98:	01810513          	addi	a0,sp,24
   14f9c:	7242a0ef          	jal	ra,3f6c0 <strcmp>
   14fa0:	00050e63          	beqz	a0,14fbc <inet_pton_main+0x12bc>
   14fa4:	00059537          	lui	a0,0x59
   14fa8:	fb048693          	addi	a3,s1,-80
   14fac:	01810613          	addi	a2,sp,24
   14fb0:	00040593          	mv	a1,s0
   14fb4:	46850513          	addi	a0,a0,1128 # 59468 <CSWTCH.18+0x7360>
   14fb8:	645120ef          	jal	ra,27dfc <t_printf>
   14fbc:	01800613          	li	a2,24
   14fc0:	a5090593          	addi	a1,s2,-1456
   14fc4:	fb048513          	addi	a0,s1,-80
   14fc8:	2652a0ef          	jal	ra,3fa2c <strncmp>
   14fcc:	02051263          	bnez	a0,14ff0 <inet_pton_main+0x12f0>
   14fd0:	02e00593          	li	a1,46
   14fd4:	00040513          	mv	a0,s0
   14fd8:	6102a0ef          	jal	ra,3f5e8 <strchr>
   14fdc:	00051a63          	bnez	a0,14ff0 <inet_pton_main+0x12f0>
   14fe0:	00059537          	lui	a0,0x59
   14fe4:	00040593          	mv	a1,s0
   14fe8:	4f050513          	addi	a0,a0,1264 # 594f0 <CSWTCH.18+0x73e8>
   14fec:	611120ef          	jal	ra,27dfc <t_printf>
   14ff0:	03400613          	li	a2,52
   14ff4:	00000593          	li	a1,0
   14ff8:	04810513          	addi	a0,sp,72
   14ffc:	00013423          	sd	zero,8(sp)
   15000:	00013823          	sd	zero,16(sp)
   15004:	00013c23          	sd	zero,24(sp)
   15008:	02013023          	sd	zero,32(sp)
   1500c:	02013423          	sd	zero,40(sp)
   15010:	02013823          	sd	zero,48(sp)
   15014:	02013c23          	sd	zero,56(sp)
   15018:	04013023          	sd	zero,64(sp)
   1501c:	4d42a0ef          	jal	ra,3f4f0 <memset>
   15020:	000595b7          	lui	a1,0x59
